ccopy_reg
_reconstructor
p0
(cnetworkx.classes.graph
Graph
p1
c__builtin__
object
p2
Ntp3
Rp4
(dp5
S'node'
p6
(dp7
(ipubmed_timeline
Term
p8
(dp9
S'term'
p10
VPLACES
p11
sS'mentions_in_year'
p12
(dp13
I1931
I1
sI1936
I1
sI1937
I1
sI1943
I1
sI1946
I4
sI1947
I2
sI1948
I2
sI1950
I5
sI1951
I7
sI1952
I8
sI1953
I8
sI1954
I7
sI1955
I7
sI1956
I2
sI1957
I5
sI1958
I12
sI1959
I1
sI1960
I3
sI1961
I2
sI1962
I3
sI1963
I5
sI1964
I12
sI1965
I6
sI1966
I12
sI1967
I9
sI1968
I10
sI1969
I5
sI1970
I10
sI1971
I5
sI1972
I11
sI1973
I9
sI1974
I6
sI1976
I7
sI1977
I10
sI1978
I5
sI1979
I6
sI1980
I7
sI1981
I6
sI1982
I10
sI1983
I5
sI1984
I13
sI1985
I11
sI1986
I10
sI1987
I11
sI1988
I7
sI1989
I15
sI1990
I9
sI1991
I15
sI1992
I24
sI1993
I23
sI1994
I45
sI1995
I22
sI1996
I27
sI1997
I31
sI1998
I26
sI1999
I48
sI2000
I36
sI2001
I41
sI2002
I42
sI2003
I54
sI2004
I42
sI2005
I51
sI2006
I56
sI2007
I54
sI2008
I67
sI2009
I77
sI2010
I95
sI2011
I98
sI2012
I128
sI2013
I104
sI2014
I139
sI2015
I132
sI1896
I1
sI1906
I1
sI1909
I1
sI1911
I1
sI1876
I2
ssb(dp14
s(ipubmed_timeline
Term
p15
(dp16
g10
Vprimary
p17
sg12
(dp18
I1920
I3
sI1926
I1
sI1929
I1
sI1932
I1
sI1934
I1
sI1941
I1
sI1944
I1
sI1945
I1
sI1946
I6
sI1947
I4
sI1948
I10
sI1949
I5
sI1950
I12
sI1951
I16
sI1952
I10
sI1953
I3
sI1954
I3
sI1955
I6
sI1956
I4
sI1957
I10
sI1958
I2
sI1959
I3
sI1960
I10
sI1961
I2
sI1962
I8
sI1963
I3
sI1964
I3
sI1965
I7
sI1966
I7
sI1967
I7
sI1968
I11
sI1969
I5
sI1970
I7
sI1971
I5
sI1972
I2
sI1973
I2
sI1974
I8
sI1975
I5
sI1976
I2
sI1977
I10
sI1978
I4
sI1979
I2
sI1980
I11
sI1981
I9
sI1982
I10
sI1983
I10
sI1984
I4
sI1985
I3
sI1986
I4
sI1987
I9
sI1988
I3
sI1989
I5
sI1990
I6
sI1991
I10
sI1992
I5
sI1993
I5
sI1994
I6
sI1995
I6
sI1996
I6
sI1997
I3
sI1998
I5
sI1999
I11
sI2000
I6
sI2001
I6
sI2002
I9
sI2003
I5
sI2004
I4
sI2005
I8
sI2006
I8
sI2007
I8
sI2008
I16
sI2009
I10
sI2010
I14
sI2011
I13
sI2012
I13
sI2013
I10
sI2014
I17
sI2015
I15
sI1887
I2
sI1868
I1
sI1862
I1
sI1909
I1
sI1914
I1
sI1915
I2
sI1916
I2
ssb(dp19
s(ipubmed_timeline
Term
p20
(dp21
g10
VDIAGNOSIS
p22
sg12
(dp23
I1905
I1
sI1908
I1
sI1909
I5
sI1911
I7
sI1912
I2
sI1913
I2
sI1914
I2
sI1915
I3
sI1917
I4
sI1918
I2
sI1920
I1
sI1921
I20
sI1922
I2
sI1923
I2
sI1924
I2
sI1926
I2
sI1927
I1
sI1928
I6
sI1929
I2
sI1931
I3
sI1933
I2
sI1934
I2
sI1937
I1
sI1939
I2
sI1940
I1
sI1942
I1
sI1944
I2
sI1945
I6
sI1946
I15
sI1947
I19
sI1948
I15
sI1949
I18
sI1950
I36
sI1951
I36
sI1952
I33
sI1953
I27
sI1954
I34
sI1955
I25
sI1956
I39
sI1957
I17
sI1958
I20
sI1959
I12
sI1960
I26
sI1961
I15
sI1962
I19
sI1963
I27
sI1964
I36
sI1965
I26
sI1966
I27
sI1967
I26
sI1968
I31
sI1969
I26
sI1970
I16
sI1971
I27
sI1972
I21
sI1973
I35
sI1974
I26
sI1975
I22
sI1976
I31
sI1977
I21
sI1978
I16
sI1979
I22
sI1980
I16
sI1981
I18
sI1982
I14
sI1983
I28
sI1984
I19
sI1985
I24
sI1986
I19
sI1987
I16
sI1988
I12
sI1989
I20
sI1990
I14
sI1991
I11
sI1992
I14
sI1993
I17
sI1994
I12
sI1995
I13
sI1996
I12
sI1997
I7
sI1998
I18
sI1999
I11
sI2000
I16
sI2001
I13
sI2002
I12
sI2003
I14
sI2004
I10
sI2005
I17
sI2006
I23
sI2007
I23
sI2008
I22
sI2009
I10
sI2010
I18
sI2011
I25
sI2012
I33
sI2013
I28
sI2014
I26
sI2015
I29
ssb(dp24
s(ipubmed_timeline
Term
p25
(dp26
g10
Vreaction
p27
sg12
(dp28
I1909
I2
sI1910
I1
sI1911
I3
sI1912
I4
sI1913
I2
sI1914
I1
sI1915
I1
sI1918
I1
sI1919
I1
sI1920
I2
sI1921
I1
sI1923
I2
sI1925
I1
sI1927
I2
sI1928
I2
sI1930
I2
sI1931
I1
sI1932
I1
sI1933
I1
sI1938
I2
sI1944
I2
sI1945
I2
sI1946
I8
sI1947
I7
sI1948
I11
sI1949
I7
sI1950
I53
sI1951
I51
sI1952
I58
sI1953
I50
sI1954
I42
sI1955
I31
sI1956
I34
sI1957
I21
sI1958
I20
sI1959
I13
sI1960
I10
sI1961
I11
sI1962
I12
sI1963
I12
sI1964
I14
sI1965
I21
sI1966
I21
sI1967
I6
sI1968
I15
sI1969
I9
sI1970
I11
sI1971
I13
sI1972
I8
sI1973
I13
sI1974
I6
sI1975
I17
sI1976
I17
sI1977
I8
sI1978
I10
sI1979
I7
sI1980
I9
sI1981
I6
sI1982
I4
sI1983
I7
sI1984
I3
sI1985
I8
sI1987
I2
sI1988
I4
sI1989
I1
sI1990
I5
sI1991
I1
sI1992
I1
sI1993
I2
sI1994
I5
sI1995
I3
sI1996
I8
sI1998
I2
sI1999
I4
sI2000
I2
sI2001
I1
sI2002
I1
sI2003
I4
sI2004
I3
sI2005
I3
sI2006
I3
sI2007
I2
sI2008
I4
sI2010
I4
sI2011
I4
sI2012
I1
sI2013
I3
sI2014
I5
sI2015
I1
ssb(dp29
s(ipubmed_timeline
Term
p30
(dp31
g10
Vtransmitted
p32
sg12
(dp33
I1953
I1
sI1955
I1
sI1956
I1
sI1967
I1
sI1969
I1
sI1970
I2
sI1971
I3
sI1972
I2
sI1973
I5
sI1974
I3
sI1975
I4
sI1976
I8
sI1977
I11
sI1978
I11
sI1979
I10
sI1980
I16
sI1981
I15
sI1982
I24
sI1983
I23
sI1984
I27
sI1985
I24
sI1986
I19
sI1987
I20
sI1988
I17
sI1989
I21
sI1990
I37
sI1991
I30
sI1992
I29
sI1993
I38
sI1994
I37
sI1995
I29
sI1996
I38
sI1997
I26
sI1998
I26
sI1999
I37
sI2000
I31
sI2001
I34
sI2002
I39
sI2003
I40
sI2004
I31
sI2005
I46
sI2006
I47
sI2007
I41
sI2008
I30
sI2009
I44
sI2010
I40
sI2011
I43
sI2012
I48
sI2013
I42
sI2014
I53
sI2015
I38
ssb(dp34
s(ipubmed_timeline
Term
p35
(dp36
g10
Vsexually
p37
sg12
(dp38
I1967
I1
sI1969
I1
sI1970
I2
sI1971
I2
sI1972
I1
sI1973
I5
sI1974
I3
sI1975
I5
sI1976
I8
sI1977
I10
sI1978
I11
sI1979
I11
sI1980
I21
sI1981
I17
sI1982
I23
sI1983
I23
sI1984
I32
sI1985
I25
sI1986
I23
sI1987
I24
sI1988
I19
sI1989
I27
sI1990
I45
sI1991
I32
sI1992
I31
sI1993
I44
sI1994
I45
sI1995
I36
sI1996
I41
sI1997
I30
sI1998
I31
sI1999
I41
sI2000
I41
sI2001
I40
sI2002
I45
sI2003
I50
sI2004
I31
sI2005
I57
sI2006
I56
sI2007
I51
sI2008
I57
sI2009
I50
sI2010
I54
sI2011
I50
sI2012
I67
sI2013
I56
sI2014
I66
sI2015
I48
ssb(dp39
s(ipubmed_timeline
Term
p40
(dp41
g10
Vsyphilitic
p42
sg12
(dp43
I1920
I1
sI1923
I1
sI1926
I1
sI1927
I1
sI1945
I5
sI1946
I43
sI1947
I22
sI1948
I35
sI1949
I34
sI1950
I59
sI1951
I83
sI1952
I50
sI1953
I51
sI1954
I44
sI1955
I31
sI1956
I42
sI1957
I28
sI1958
I34
sI1959
I28
sI1960
I32
sI1961
I25
sI1962
I21
sI1963
I30
sI1964
I38
sI1965
I27
sI1966
I24
sI1967
I28
sI1968
I20
sI1969
I24
sI1970
I24
sI1971
I23
sI1972
I14
sI1973
I18
sI1974
I16
sI1975
I19
sI1976
I20
sI1977
I15
sI1978
I17
sI1979
I20
sI1980
I21
sI1981
I20
sI1982
I21
sI1983
I21
sI1984
I25
sI1985
I8
sI1986
I20
sI1987
I24
sI1988
I17
sI1989
I23
sI1990
I20
sI1991
I12
sI1992
I14
sI1993
I10
sI1994
I13
sI1995
I14
sI1996
I11
sI1997
I13
sI1998
I10
sI1999
I8
sI2000
I13
sI2001
I8
sI2002
I14
sI2003
I17
sI2004
I16
sI2005
I13
sI2006
I15
sI2007
I11
sI2008
I16
sI2009
I32
sI2010
I28
sI2011
I37
sI2012
I26
sI2013
I33
sI2014
I29
sI2015
I19
sI1873
I1
sI1916
I1
sI1917
I1
ssb(dp44
s(ipubmed_timeline
Term
p45
(dp46
g10
VTREPONEMA
p47
sg12
(dp48
I1922
I1
sI1925
I1
sI1934
I1
sI1938
I1
sI1939
I1
sI1946
I3
sI1947
I3
sI1948
I3
sI1949
I4
sI1950
I7
sI1951
I18
sI1952
I19
sI1953
I36
sI1954
I21
sI1955
I30
sI1956
I31
sI1957
I34
sI1958
I25
sI1959
I15
sI1960
I14
sI1961
I9
sI1962
I4
sI1963
I7
sI1964
I11
sI1965
I13
sI1966
I14
sI1967
I19
sI1968
I14
sI1969
I23
sI1970
I17
sI1971
I13
sI1972
I28
sI1973
I11
sI1974
I13
sI1975
I15
sI1976
I16
sI1977
I20
sI1978
I7
sI1979
I18
sI1980
I23
sI1981
I25
sI1982
I17
sI1983
I21
sI1984
I17
sI1985
I22
sI1986
I16
sI1987
I10
sI1988
I18
sI1989
I12
sI1990
I11
sI1991
I8
sI1992
I16
sI1993
I8
sI1994
I10
sI1995
I12
sI1996
I8
sI1997
I10
sI1998
I12
sI1999
I10
sI2000
I11
sI2001
I7
sI2002
I8
sI2003
I9
sI2004
I17
sI2005
I10
sI2006
I12
sI2007
I11
sI2008
I9
sI2009
I15
sI2010
I9
sI2011
I17
sI2012
I22
sI2013
I14
sI2014
I18
sI2015
I22
sI1906
I1
sI1907
I1
sI1912
I1
sI1913
I2
sI1915
I1
sI1916
I5
ssb(dp49
s(ipubmed_timeline
Term
p50
(dp51
g10
Vinfectious
p52
sg12
(dp53
I1934
I1
sI1936
I1
sI1946
I1
sI1947
I3
sI1948
I1
sI1949
I2
sI1950
I6
sI1951
I3
sI1953
I1
sI1954
I3
sI1956
I1
sI1958
I1
sI1959
I1
sI1960
I4
sI1961
I1
sI1962
I3
sI1963
I7
sI1964
I5
sI1965
I6
sI1966
I4
sI1967
I6
sI1968
I3
sI1969
I4
sI1970
I5
sI1971
I6
sI1972
I5
sI1973
I8
sI1974
I9
sI1975
I7
sI1976
I8
sI1977
I2
sI1978
I6
sI1979
I5
sI1980
I11
sI1981
I5
sI1982
I8
sI1983
I8
sI1984
I11
sI1985
I5
sI1986
I5
sI1987
I9
sI1988
I11
sI1989
I7
sI1990
I4
sI1991
I10
sI1992
I4
sI1993
I5
sI1994
I10
sI1995
I11
sI1996
I3
sI1997
I4
sI1998
I7
sI1999
I7
sI2000
I6
sI2001
I7
sI2002
I12
sI2003
I7
sI2004
I7
sI2005
I14
sI2006
I11
sI2007
I12
sI2008
I12
sI2009
I14
sI2010
I13
sI2011
I19
sI2012
I8
sI2013
I15
sI2014
I13
sI2015
I21
ssb(dp54
s(ipubmed_timeline
Term
p55
(dp56
g10
Vstudies
p57
sg12
(dp58
I1925
I4
sI1926
I1
sI1927
I1
sI1928
I1
sI1930
I3
sI1931
I2
sI1932
I3
sI1941
I1
sI1943
I2
sI1945
I1
sI1946
I8
sI1947
I2
sI1948
I7
sI1949
I6
sI1950
I8
sI1951
I20
sI1952
I22
sI1953
I22
sI1954
I15
sI1955
I16
sI1956
I10
sI1957
I9
sI1958
I9
sI1959
I7
sI1960
I5
sI1961
I5
sI1962
I11
sI1963
I9
sI1964
I15
sI1965
I10
sI1966
I13
sI1967
I18
sI1968
I16
sI1969
I8
sI1970
I3
sI1971
I16
sI1972
I9
sI1973
I8
sI1974
I10
sI1975
I4
sI1976
I8
sI1977
I3
sI1978
I1
sI1979
I3
sI1980
I6
sI1981
I3
sI1982
I5
sI1983
I6
sI1984
I6
sI1985
I6
sI1986
I2
sI1987
I4
sI1988
I4
sI1989
I3
sI1990
I2
sI1991
I1
sI1992
I2
sI1994
I1
sI1995
I1
sI1996
I3
sI1997
I2
sI1998
I2
sI2000
I2
sI2001
I1
sI2002
I2
sI2003
I1
sI2004
I1
sI2005
I2
sI2006
I3
sI2007
I1
sI2008
I1
sI2009
I4
sI2010
I2
sI2011
I3
sI2012
I2
sI2013
I5
sI2014
I1
sI1911
I1
sI1912
I1
sI1916
I3
ssb(dp59
s(ipubmed_timeline
Term
p60
(dp61
g10
VSYPHILIS
p62
sg12
(dp63
I1817
I1
sI1827
I1
sI1841
I2
sI1842
I1
sI1843
I2
sI1852
I1
sI1856
I1
sI1862
I1
sI1863
I1
sI1864
I2
sI1865
I4
sI1866
I1
sI1868
I3
sI1869
I3
sI1871
I2
sI1872
I4
sI1873
I3
sI1874
I15
sI1875
I4
sI1876
I4
sI1877
I2
sI1878
I2
sI1879
I3
sI1880
I1
sI1882
I2
sI1883
I1
sI1884
I2
sI1885
I1
sI1886
I4
sI1887
I3
sI1888
I1
sI1889
I6
sI1890
I1
sI1891
I1
sI1892
I1
sI1893
I1
sI1895
I1
sI1896
I3
sI1897
I3
sI1898
I2
sI1899
I1
sI1900
I2
sI1901
I3
sI1902
I1
sI1903
I5
sI1904
I1
sI1905
I7
sI1906
I7
sI1907
I4
sI1908
I18
sI1909
I33
sI1910
I25
sI1911
I36
sI1912
I39
sI1913
I30
sI1914
I18
sI1915
I22
sI1916
I25
sI1917
I19
sI1918
I23
sI1919
I11
sI1920
I20
sI1921
I38
sI1922
I20
sI1923
I25
sI1924
I22
sI1925
I22
sI1926
I31
sI1927
I25
sI1928
I18
sI1929
I33
sI1930
I27
sI1931
I22
sI1932
I21
sI1933
I14
sI1934
I27
sI1935
I25
sI1936
I22
sI1937
I25
sI1938
I27
sI1939
I27
sI1940
I18
sI1941
I13
sI1942
I16
sI1943
I23
sI1944
I18
sI1945
I74
sI1946
I289
sI1947
I267
sI1948
I266
sI1949
I262
sI1950
I521
sI1951
I527
sI1952
I450
sI1953
I387
sI1954
I329
sI1955
I306
sI1956
I264
sI1957
I201
sI1958
I187
sI1959
I134
sI1960
I149
sI1961
I135
sI1962
I161
sI1963
I177
sI1964
I206
sI1965
I240
sI1966
I164
sI1967
I184
sI1968
I163
sI1969
I164
sI1970
I154
sI1971
I174
sI1972
I161
sI1973
I159
sI1974
I144
sI1975
I142
sI1976
I183
sI1977
I140
sI1978
I132
sI1979
I150
sI1980
I149
sI1981
I158
sI1982
I162
sI1983
I155
sI1984
I147
sI1985
I166
sI1986
I121
sI1987
I142
sI1988
I145
sI1989
I170
sI1990
I176
sI1991
I146
sI1992
I159
sI1993
I134
sI1994
I126
sI1995
I123
sI1996
I94
sI1997
I88
sI1998
I107
sI1999
I115
sI2000
I112
sI2001
I130
sI2002
I135
sI2003
I133
sI2004
I166
sI2005
I162
sI2006
I210
sI2007
I184
sI2008
I200
sI2009
I196
sI2010
I209
sI2011
I233
sI2012
I242
sI2013
I305
sI2014
I262
sI2015
I290
ssb(dp64
s(ipubmed_timeline
Term
p65
(dp66
g10
Vtreatment
p67
sg12
(dp68
I1817
I1
sI1843
I1
sI1856
I1
sI1868
I1
sI1869
I2
sI1872
I2
sI1874
I2
sI1875
I2
sI1879
I1
sI1883
I1
sI1884
I1
sI1896
I2
sI1897
I2
sI1898
I2
sI1903
I2
sI1905
I1
sI1907
I1
sI1908
I4
sI1909
I13
sI1910
I11
sI1911
I4
sI1912
I6
sI1913
I4
sI1914
I5
sI1915
I5
sI1916
I6
sI1917
I8
sI1918
I6
sI1919
I4
sI1920
I4
sI1921
I20
sI1922
I8
sI1923
I4
sI1924
I4
sI1925
I2
sI1926
I8
sI1927
I7
sI1928
I4
sI1929
I4
sI1930
I4
sI1931
I5
sI1932
I5
sI1933
I5
sI1934
I7
sI1935
I6
sI1936
I8
sI1937
I3
sI1938
I3
sI1939
I3
sI1940
I5
sI1941
I6
sI1942
I3
sI1943
I4
sI1944
I4
sI1945
I28
sI1946
I110
sI1947
I91
sI1948
I101
sI1949
I98
sI1950
I137
sI1951
I99
sI1952
I65
sI1953
I63
sI1954
I60
sI1955
I52
sI1956
I44
sI1957
I31
sI1958
I32
sI1959
I39
sI1960
I18
sI1961
I29
sI1962
I33
sI1963
I34
sI1964
I45
sI1965
I45
sI1966
I26
sI1967
I26
sI1968
I21
sI1969
I25
sI1970
I14
sI1971
I33
sI1972
I35
sI1973
I33
sI1974
I16
sI1975
I20
sI1976
I51
sI1977
I20
sI1978
I12
sI1979
I21
sI1980
I17
sI1981
I21
sI1982
I16
sI1983
I17
sI1984
I22
sI1985
I14
sI1986
I23
sI1987
I22
sI1988
I18
sI1989
I21
sI1990
I15
sI1991
I16
sI1992
I6
sI1993
I9
sI1994
I14
sI1995
I15
sI1996
I10
sI1997
I12
sI1998
I11
sI1999
I16
sI2000
I15
sI2001
I11
sI2002
I12
sI2003
I14
sI2004
I19
sI2005
I9
sI2006
I9
sI2007
I16
sI2008
I11
sI2009
I13
sI2010
I14
sI2011
I12
sI2012
I19
sI2013
I12
sI2014
I19
sI2015
I21
ssb(dp69
s(ipubmed_timeline
Term
p70
(dp71
g10
VCLINIC
p72
sg12
(dp73
I1841
I1
sI1864
I2
sI1866
I1
sI1868
I1
sI1876
I1
sI1887
I1
sI1891
I1
sI1894
I1
sI1902
I1
sI1910
I1
sI1914
I2
sI1916
I2
sI1920
I1
sI1921
I1
sI1922
I1
sI1923
I1
sI1924
I2
sI1925
I1
sI1926
I2
sI1927
I1
sI1930
I2
sI1931
I1
sI1937
I2
sI1938
I1
sI1942
I1
sI1945
I2
sI1946
I10
sI1947
I3
sI1948
I7
sI1949
I13
sI1950
I20
sI1951
I27
sI1952
I29
sI1953
I18
sI1954
I20
sI1955
I15
sI1956
I15
sI1957
I11
sI1958
I15
sI1959
I10
sI1960
I16
sI1961
I8
sI1962
I15
sI1963
I21
sI1964
I33
sI1965
I19
sI1966
I21
sI1967
I19
sI1968
I21
sI1969
I15
sI1970
I24
sI1971
I19
sI1972
I18
sI1973
I15
sI1974
I15
sI1975
I11
sI1976
I17
sI1977
I11
sI1978
I12
sI1979
I12
sI1980
I14
sI1981
I17
sI1982
I8
sI1983
I8
sI1984
I19
sI1985
I10
sI1986
I18
sI1987
I10
sI1988
I13
sI1989
I13
sI1990
I16
sI1991
I10
sI1992
I9
sI1993
I14
sI1994
I16
sI1995
I5
sI1996
I11
sI1997
I13
sI1998
I5
sI1999
I11
sI2000
I15
sI2001
I10
sI2002
I11
sI2003
I13
sI2004
I16
sI2005
I22
sI2006
I18
sI2007
I21
sI2008
I22
sI2009
I19
sI2010
I12
sI2011
I24
sI2012
I21
sI2013
I26
sI2014
I26
sI2015
I30
ssb(dp74
s(ipubmed_timeline
Term
p75
(dp76
g10
VMETHODS
p77
sg12
(dp78
I1862
I1
sI1871
I3
sI1873
I1
sI1876
I1
sI1908
I1
sI1909
I1
sI1911
I2
sI1912
I2
sI1914
I1
sI1916
I1
sI1917
I1
sI1918
I3
sI1919
I1
sI1920
I2
sI1921
I2
sI1922
I1
sI1924
I2
sI1925
I4
sI1927
I3
sI1929
I2
sI1931
I2
sI1932
I2
sI1937
I3
sI1939
I2
sI1940
I2
sI1941
I1
sI1942
I1
sI1943
I4
sI1944
I1
sI1945
I8
sI1946
I41
sI1947
I23
sI1948
I31
sI1949
I28
sI1950
I40
sI1951
I56
sI1952
I34
sI1953
I29
sI1954
I40
sI1955
I25
sI1956
I24
sI1957
I21
sI1958
I22
sI1959
I18
sI1960
I13
sI1961
I17
sI1962
I12
sI1963
I19
sI1964
I25
sI1965
I21
sI1966
I14
sI1967
I25
sI1968
I20
sI1969
I23
sI1970
I19
sI1971
I19
sI1972
I11
sI1973
I29
sI1974
I16
sI1975
I14
sI1976
I18
sI1977
I20
sI1978
I17
sI1979
I18
sI1980
I18
sI1981
I22
sI1982
I15
sI1983
I22
sI1984
I19
sI1985
I18
sI1986
I21
sI1987
I25
sI1988
I27
sI1989
I26
sI1990
I23
sI1991
I18
sI1992
I19
sI1993
I33
sI1994
I26
sI1995
I20
sI1996
I20
sI1997
I18
sI1998
I17
sI1999
I19
sI2000
I18
sI2001
I21
sI2002
I21
sI2003
I25
sI2004
I31
sI2005
I27
sI2006
I31
sI2007
I37
sI2008
I25
sI2009
I30
sI2010
I42
sI2011
I53
sI2012
I61
sI2013
I51
sI2014
I56
sI2015
I56
ssb(dp79
s(ipubmed_timeline
Term
p80
(dp81
g10
Vresults
p82
sg12
(dp83
I1922
I1
sI1924
I1
sI1865
I4
sI1930
I1
sI1932
I1
sI1937
I2
sI1939
I1
sI1940
I1
sI1941
I1
sI1942
I2
sI1945
I2
sI1946
I9
sI1947
I4
sI1948
I7
sI1949
I9
sI1950
I22
sI1951
I26
sI1952
I21
sI1953
I24
sI1954
I23
sI1955
I29
sI1956
I17
sI1957
I20
sI1958
I20
sI1959
I13
sI1960
I15
sI1961
I8
sI1962
I11
sI1963
I9
sI1964
I6
sI1965
I11
sI1966
I8
sI1967
I11
sI1968
I10
sI1969
I5
sI1970
I8
sI1971
I12
sI1972
I9
sI1973
I8
sI1974
I5
sI1975
I6
sI1976
I5
sI1977
I6
sI1978
I5
sI1979
I14
sI1980
I7
sI1981
I6
sI1982
I7
sI1983
I7
sI1984
I4
sI1985
I7
sI1986
I1
sI1987
I5
sI1988
I3
sI1989
I7
sI1990
I3
sI1991
I2
sI1992
I3
sI1993
I2
sI1994
I3
sI1995
I3
sI1996
I5
sI1997
I4
sI1998
I4
sI1999
I3
sI2000
I3
sI2001
I2
sI2002
I5
sI2003
I4
sI2004
I3
sI2005
I2
sI2006
I5
sI2007
I9
sI2008
I8
sI2009
I7
sI2010
I5
sI2011
I9
sI2012
I6
sI2013
I12
sI2014
I13
sI2015
I13
sI1911
I1
sI1912
I1
sI1913
I2
ssb(dp84
s(ipubmed_timeline
Term
p85
(dp86
g10
Vpallidum
p87
sg12
(dp88
I1922
I1
sI1924
I1
sI1925
I1
sI1927
I1
sI1932
I1
sI1934
I1
sI1938
I1
sI1944
I1
sI1946
I3
sI1947
I3
sI1948
I3
sI1949
I3
sI1950
I6
sI1951
I10
sI1952
I7
sI1953
I19
sI1954
I15
sI1955
I18
sI1956
I19
sI1957
I26
sI1958
I14
sI1959
I14
sI1960
I5
sI1961
I9
sI1962
I4
sI1963
I7
sI1964
I11
sI1965
I8
sI1966
I12
sI1967
I20
sI1968
I21
sI1969
I23
sI1970
I13
sI1971
I19
sI1972
I29
sI1973
I11
sI1974
I10
sI1975
I15
sI1976
I21
sI1977
I14
sI1978
I11
sI1979
I19
sI1980
I26
sI1981
I19
sI1982
I21
sI1983
I23
sI1984
I26
sI1985
I28
sI1986
I24
sI1987
I18
sI1988
I24
sI1989
I14
sI1990
I14
sI1991
I15
sI1992
I19
sI1993
I10
sI1994
I11
sI1995
I13
sI1996
I13
sI1997
I15
sI1998
I14
sI1999
I16
sI2000
I14
sI2001
I11
sI2002
I10
sI2003
I14
sI2004
I19
sI2005
I15
sI2006
I18
sI2007
I23
sI2008
I15
sI2009
I24
sI2010
I19
sI2011
I23
sI2012
I33
sI2013
I20
sI2014
I32
sI2015
I38
sI1906
I1
sI1912
I2
sI1913
I1
sI1916
I5
ssb(dp89
s(ipubmed_timeline
Term
p90
(dp91
g10
Vstudy
p92
sg12
(dp93
I1908
I1
sI1910
I1
sI1912
I1
sI1913
I1
sI1916
I1
sI1920
I1
sI1922
I1
sI1926
I1
sI1927
I1
sI1928
I1
sI1929
I1
sI1930
I1
sI1937
I1
sI1938
I2
sI1939
I1
sI1940
I1
sI1944
I1
sI1945
I2
sI1946
I10
sI1947
I7
sI1948
I9
sI1949
I18
sI1950
I19
sI1951
I22
sI1952
I16
sI1953
I26
sI1954
I22
sI1955
I14
sI1956
I12
sI1957
I13
sI1958
I14
sI1959
I10
sI1960
I10
sI1961
I7
sI1962
I17
sI1963
I15
sI1964
I23
sI1965
I9
sI1966
I10
sI1967
I15
sI1968
I23
sI1969
I23
sI1970
I16
sI1971
I16
sI1972
I17
sI1973
I17
sI1974
I18
sI1975
I9
sI1976
I9
sI1977
I13
sI1978
I13
sI1979
I9
sI1980
I13
sI1981
I8
sI1982
I10
sI1983
I7
sI1984
I16
sI1985
I8
sI1986
I5
sI1987
I10
sI1988
I6
sI1989
I11
sI1990
I9
sI1991
I14
sI1992
I15
sI1993
I14
sI1994
I13
sI1995
I15
sI1996
I17
sI1997
I12
sI1998
I14
sI1999
I16
sI2000
I15
sI2001
I9
sI2002
I15
sI2003
I15
sI2004
I12
sI2005
I12
sI2006
I24
sI2007
I26
sI2008
I13
sI2009
I16
sI2010
I16
sI2011
I20
sI2012
I31
sI2013
I24
sI2014
I45
sI2015
I38
ssb(dp94
s(ipubmed_timeline
Term
p95
(dp96
g10
Vtherapy
p97
sg12
(dp98
I1923
I1
sI1924
I1
sI1925
I1
sI1927
I1
sI1929
I3
sI1930
I1
sI1933
I1
sI1935
I1
sI1936
I3
sI1941
I1
sI1943
I1
sI1944
I2
sI1945
I8
sI1946
I33
sI1947
I26
sI1948
I17
sI1949
I24
sI1950
I93
sI1951
I98
sI1952
I81
sI1953
I55
sI1954
I36
sI1955
I33
sI1956
I21
sI1957
I25
sI1958
I18
sI1959
I15
sI1960
I11
sI1961
I9
sI1962
I9
sI1963
I12
sI1964
I17
sI1965
I13
sI1966
I8
sI1967
I12
sI1968
I14
sI1969
I13
sI1970
I12
sI1971
I10
sI1972
I5
sI1973
I12
sI1974
I5
sI1975
I7
sI1976
I14
sI1977
I6
sI1978
I3
sI1979
I7
sI1980
I4
sI1981
I7
sI1982
I9
sI1983
I8
sI1984
I5
sI1985
I8
sI1986
I7
sI1987
I10
sI1988
I6
sI1989
I4
sI1990
I8
sI1991
I4
sI1992
I2
sI1993
I8
sI1994
I7
sI1995
I6
sI1996
I4
sI1997
I2
sI1998
I2
sI1999
I4
sI2000
I3
sI2001
I5
sI2002
I4
sI2003
I7
sI2004
I6
sI2005
I1
sI2006
I4
sI2007
I4
sI2008
I3
sI2009
I5
sI2010
I5
sI2011
I9
sI2012
I5
sI2013
I9
sI2014
I7
sI2015
I5
sI1913
I1
sI1918
I1
ssb(dp99
s(ipubmed_timeline
Term
p100
(dp101
g10
Vsecondary
p102
sg12
(dp103
I1922
I1
sI1923
I1
sI1926
I2
sI1929
I1
sI1871
I1
sI1941
I1
sI1946
I4
sI1947
I2
sI1948
I8
sI1949
I3
sI1950
I10
sI1951
I9
sI1952
I9
sI1953
I5
sI1954
I3
sI1955
I2
sI1956
I5
sI1957
I5
sI1958
I2
sI1959
I2
sI1960
I7
sI1961
I5
sI1962
I3
sI1963
I5
sI1964
I8
sI1965
I10
sI1966
I4
sI1967
I8
sI1968
I12
sI1969
I9
sI1970
I21
sI1971
I14
sI1972
I8
sI1973
I9
sI1974
I18
sI1975
I13
sI1976
I13
sI1977
I15
sI1978
I14
sI1979
I17
sI1980
I21
sI1981
I15
sI1982
I19
sI1983
I18
sI1984
I14
sI1985
I18
sI1986
I24
sI1987
I25
sI1988
I10
sI1989
I18
sI1990
I15
sI1991
I12
sI1992
I10
sI1993
I17
sI1994
I13
sI1995
I11
sI1996
I14
sI1997
I6
sI1998
I8
sI1999
I11
sI2000
I6
sI2001
I15
sI2002
I11
sI2003
I14
sI2004
I17
sI2005
I16
sI2006
I17
sI2007
I18
sI2008
I25
sI2009
I24
sI2010
I24
sI2011
I24
sI2012
I25
sI2013
I40
sI2014
I22
sI2015
I21
sI1901
I1
sI1908
I1
sI1909
I1
sI1910
I1
sI1911
I1
sI1912
I1
sI1913
I2
sI1916
I1
ssb(dp104
s(ipubmed_timeline
Term
p105
(dp106
g10
Vpenicillin
p107
sg12
(dp108
I1943
I1
sI1944
I4
sI1945
I24
sI1946
I118
sI1947
I90
sI1948
I78
sI1949
I84
sI1950
I138
sI1951
I134
sI1952
I96
sI1953
I73
sI1954
I51
sI1955
I46
sI1956
I34
sI1957
I34
sI1958
I20
sI1959
I17
sI1960
I11
sI1961
I12
sI1962
I15
sI1963
I14
sI1964
I22
sI1965
I16
sI1966
I11
sI1967
I10
sI1968
I10
sI1969
I7
sI1970
I11
sI1971
I13
sI1972
I16
sI1973
I18
sI1974
I7
sI1975
I6
sI1976
I10
sI1977
I7
sI1978
I6
sI1979
I6
sI1980
I7
sI1981
I11
sI1982
I10
sI1983
I6
sI1984
I11
sI1985
I8
sI1986
I7
sI1987
I14
sI1988
I7
sI1989
I4
sI1990
I5
sI1991
I3
sI1992
I2
sI1993
I4
sI1994
I3
sI1995
I2
sI1997
I5
sI1998
I4
sI1999
I3
sI2000
I2
sI2001
I2
sI2002
I4
sI2003
I2
sI2004
I6
sI2005
I2
sI2006
I7
sI2008
I4
sI2009
I3
sI2010
I3
sI2011
I2
sI2012
I6
sI2013
I3
sI2014
I12
sI2015
I9
ssb(dp109
s(ipubmed_timeline
Term
p110
(dp111
g10
Vserological
p112
sg12
(dp113
I1929
I1
sI1930
I1
sI1937
I2
sI1939
I1
sI1943
I4
sI1944
I2
sI1945
I1
sI1946
I4
sI1947
I12
sI1948
I4
sI1949
I4
sI1950
I10
sI1951
I13
sI1952
I28
sI1953
I24
sI1954
I17
sI1955
I27
sI1956
I24
sI1957
I11
sI1958
I19
sI1959
I17
sI1960
I12
sI1961
I20
sI1962
I25
sI1963
I16
sI1964
I19
sI1965
I14
sI1966
I14
sI1967
I22
sI1968
I12
sI1969
I19
sI1970
I18
sI1971
I15
sI1972
I13
sI1973
I17
sI1974
I16
sI1975
I9
sI1976
I9
sI1977
I8
sI1978
I6
sI1979
I11
sI1980
I18
sI1981
I8
sI1982
I13
sI1983
I10
sI1984
I14
sI1985
I13
sI1986
I7
sI1987
I10
sI1988
I6
sI1989
I9
sI1990
I11
sI1991
I12
sI1992
I3
sI1993
I5
sI1994
I7
sI1995
I5
sI1996
I4
sI1997
I5
sI1998
I7
sI1999
I3
sI2000
I8
sI2001
I4
sI2002
I2
sI2003
I3
sI2004
I3
sI2005
I1
sI2006
I7
sI2007
I4
sI2008
I8
sI2009
I4
sI2010
I8
sI2011
I6
sI2012
I8
sI2013
I5
sI2014
I13
sI2015
I10
sI1914
I1
ssb(dp114
s(ipubmed_timeline
Term
p115
(dp116
g10
VHEALTH
p117
sg12
(dp118
I1875
I1
sI1911
I1
sI1912
I19
sI1914
I1
sI1920
I1
sI1923
I1
sI1924
I2
sI1932
I2
sI1934
I4
sI1935
I4
sI1936
I1
sI1937
I4
sI1938
I2
sI1939
I1
sI1942
I1
sI1945
I1
sI1946
I6
sI1947
I2
sI1948
I3
sI1949
I1
sI1950
I4
sI1951
I11
sI1952
I6
sI1953
I4
sI1954
I4
sI1955
I1
sI1956
I2
sI1957
I2
sI1958
I4
sI1959
I1
sI1960
I2
sI1961
I1
sI1962
I2
sI1963
I2
sI1964
I2
sI1965
I1
sI1966
I5
sI1967
I3
sI1968
I4
sI1969
I3
sI1970
I2
sI1971
I6
sI1972
I5
sI1973
I3
sI1974
I5
sI1975
I6
sI1976
I2
sI1977
I5
sI1978
I3
sI1979
I2
sI1980
I2
sI1981
I1
sI1982
I4
sI1983
I4
sI1984
I7
sI1985
I8
sI1986
I4
sI1987
I3
sI1988
I3
sI1989
I5
sI1990
I5
sI1991
I12
sI1992
I12
sI1993
I10
sI1994
I12
sI1995
I6
sI1996
I11
sI1997
I10
sI1998
I9
sI1999
I9
sI2000
I8
sI2001
I9
sI2002
I16
sI2003
I8
sI2004
I12
sI2005
I20
sI2006
I24
sI2007
I14
sI2008
I20
sI2009
I14
sI2010
I22
sI2011
I22
sI2012
I28
sI2013
I23
sI2014
I20
sI2015
I32
ssb(dp119
s(ipubmed_timeline
Term
p120
(dp121
g10
Vinfection
p122
sg12
(dp123
I1920
I3
sI1924
I2
sI1927
I1
sI1928
I2
sI1930
I1
sI1935
I1
sI1945
I1
sI1946
I3
sI1947
I1
sI1948
I3
sI1949
I5
sI1950
I3
sI1951
I8
sI1952
I9
sI1953
I3
sI1954
I4
sI1955
I5
sI1956
I6
sI1957
I6
sI1958
I7
sI1959
I5
sI1960
I8
sI1961
I3
sI1962
I3
sI1963
I4
sI1964
I13
sI1965
I9
sI1966
I5
sI1967
I4
sI1968
I4
sI1969
I8
sI1970
I2
sI1971
I6
sI1972
I7
sI1973
I5
sI1974
I7
sI1975
I7
sI1976
I10
sI1977
I7
sI1978
I7
sI1979
I6
sI1980
I7
sI1981
I11
sI1982
I7
sI1983
I6
sI1984
I15
sI1985
I9
sI1986
I13
sI1987
I14
sI1988
I33
sI1989
I37
sI1990
I42
sI1991
I45
sI1992
I54
sI1993
I46
sI1994
I56
sI1995
I30
sI1996
I34
sI1997
I36
sI1998
I32
sI1999
I30
sI2000
I27
sI2001
I32
sI2002
I19
sI2003
I36
sI2004
I26
sI2005
I28
sI2006
I28
sI2007
I30
sI2008
I39
sI2009
I34
sI2010
I36
sI2011
I45
sI2012
I49
sI2013
I61
sI2014
I60
sI2015
I68
sI1910
I1
sI1914
I1
ssb(dp124
s(ipubmed_timeline
Term
p125
(dp126
g10
Vscreening
p127
sg12
(dp128
I1943
I1
sI1949
I1
sI1951
I1
sI1952
I1
sI1953
I2
sI1954
I2
sI1955
I2
sI1956
I2
sI1957
I2
sI1958
I1
sI1961
I2
sI1962
I3
sI1964
I3
sI1965
I3
sI1966
I4
sI1967
I3
sI1968
I2
sI1969
I3
sI1970
I4
sI1971
I2
sI1972
I3
sI1973
I4
sI1974
I3
sI1975
I6
sI1976
I3
sI1977
I7
sI1978
I4
sI1979
I9
sI1980
I5
sI1981
I5
sI1982
I9
sI1983
I3
sI1984
I3
sI1985
I5
sI1986
I3
sI1987
I7
sI1988
I4
sI1989
I15
sI1990
I11
sI1991
I10
sI1992
I13
sI1993
I12
sI1994
I7
sI1995
I13
sI1996
I9
sI1997
I10
sI1998
I20
sI1999
I8
sI2000
I11
sI2001
I11
sI2002
I19
sI2003
I12
sI2004
I12
sI2005
I18
sI2006
I18
sI2007
I20
sI2008
I14
sI2009
I21
sI2010
I18
sI2011
I21
sI2012
I15
sI2013
I32
sI2014
I31
sI2015
I35
ssb(dp129
s(ipubmed_timeline
Term
p130
(dp131
g10
Vsex
p132
sg12
(dp133
I1923
I1
sI1925
I1
sI1931
I2
sI1949
I1
sI1952
I1
sI1970
I1
sI1976
I1
sI1977
I1
sI1979
I1
sI1981
I2
sI1985
I1
sI1987
I1
sI1988
I2
sI1989
I1
sI1991
I3
sI1992
I3
sI1993
I3
sI1994
I3
sI1995
I7
sI1996
I8
sI1997
I3
sI1998
I10
sI1999
I11
sI2000
I8
sI2001
I11
sI2002
I12
sI2003
I20
sI2004
I16
sI2005
I29
sI2006
I24
sI2007
I28
sI2008
I37
sI2009
I45
sI2010
I54
sI2011
I53
sI2012
I75
sI2013
I66
sI2014
I83
sI2015
I71
ssb(dp134
s(ipubmed_timeline
Term
p135
(dp136
g10
Vevaluation
p137
sg12
(dp138
I1930
I1
sI1931
I1
sI1941
I1
sI1943
I1
sI1945
I1
sI1946
I3
sI1947
I5
sI1948
I7
sI1949
I12
sI1950
I8
sI1951
I12
sI1952
I7
sI1953
I7
sI1954
I8
sI1955
I8
sI1956
I4
sI1957
I3
sI1958
I11
sI1959
I6
sI1960
I8
sI1961
I8
sI1962
I5
sI1963
I6
sI1964
I13
sI1965
I7
sI1966
I4
sI1967
I9
sI1968
I14
sI1969
I10
sI1970
I9
sI1971
I13
sI1972
I9
sI1973
I5
sI1974
I7
sI1975
I7
sI1976
I9
sI1977
I12
sI1978
I12
sI1979
I9
sI1980
I3
sI1981
I4
sI1982
I7
sI1983
I7
sI1984
I7
sI1985
I11
sI1986
I8
sI1987
I10
sI1988
I4
sI1989
I7
sI1990
I8
sI1991
I5
sI1992
I12
sI1993
I6
sI1994
I12
sI1995
I6
sI1996
I9
sI1997
I1
sI1998
I5
sI1999
I3
sI2000
I7
sI2001
I7
sI2002
I5
sI2003
I7
sI2004
I5
sI2005
I8
sI2006
I12
sI2007
I12
sI2008
I14
sI2009
I16
sI2010
I11
sI2011
I14
sI2012
I11
sI2013
I13
sI2014
I24
sI2015
I30
ssb(dp139
s(ipubmed_timeline
Term
p140
(dp141
g10
VDISEASE
p142
sg12
(dp143
I1817
I1
sI1827
I1
sI1863
I1
sI1864
I2
sI1874
I9
sI1876
I1
sI1877
I1
sI1892
I1
sI1895
I1
sI1902
I1
sI1908
I2
sI1910
I2
sI1912
I19
sI1913
I9
sI1914
I2
sI1916
I2
sI1918
I1
sI1920
I1
sI1924
I2
sI1926
I3
sI1928
I2
sI1929
I2
sI1932
I1
sI1933
I1
sI1934
I3
sI1935
I1
sI1936
I1
sI1938
I1
sI1939
I2
sI1941
I1
sI1942
I1
sI1945
I2
sI1946
I11
sI1947
I8
sI1948
I7
sI1949
I11
sI1950
I17
sI1951
I23
sI1952
I18
sI1953
I21
sI1954
I16
sI1955
I16
sI1956
I17
sI1957
I16
sI1958
I17
sI1959
I6
sI1960
I17
sI1961
I11
sI1962
I12
sI1963
I43
sI1964
I55
sI1965
I21
sI1966
I48
sI1967
I36
sI1968
I33
sI1969
I48
sI1970
I36
sI1971
I55
sI1972
I59
sI1973
I65
sI1974
I47
sI1975
I47
sI1976
I46
sI1977
I35
sI1978
I42
sI1979
I38
sI1980
I48
sI1981
I38
sI1982
I49
sI1983
I56
sI1984
I57
sI1985
I45
sI1986
I42
sI1987
I45
sI1988
I43
sI1989
I57
sI1990
I80
sI1991
I74
sI1992
I71
sI1993
I75
sI1994
I88
sI1995
I68
sI1996
I66
sI1997
I54
sI1998
I55
sI1999
I57
sI2000
I65
sI2001
I62
sI2002
I65
sI2003
I62
sI2004
I48
sI2005
I62
sI2006
I52
sI2007
I43
sI2008
I55
sI2009
I52
sI2010
I47
sI2011
I52
sI2012
I53
sI2013
I52
sI2014
I42
sI2015
I58
ssb(dp144
s(ipubmed_timeline
Term
p145
(dp146
g10
VANTIBODY
p147
sg12
(dp148
I1932
I1
sI1938
I1
sI1940
I1
sI1947
I1
sI1948
I2
sI1949
I1
sI1950
I6
sI1951
I8
sI1952
I7
sI1953
I8
sI1954
I7
sI1955
I9
sI1956
I3
sI1957
I9
sI1958
I4
sI1959
I7
sI1960
I1
sI1961
I6
sI1962
I1
sI1963
I3
sI1964
I10
sI1965
I7
sI1966
I11
sI1967
I10
sI1968
I7
sI1969
I12
sI1970
I10
sI1971
I10
sI1972
I11
sI1973
I6
sI1974
I2
sI1975
I6
sI1976
I6
sI1977
I6
sI1978
I6
sI1979
I4
sI1980
I5
sI1981
I6
sI1982
I14
sI1983
I10
sI1984
I16
sI1985
I20
sI1986
I11
sI1987
I21
sI1988
I20
sI1989
I21
sI1990
I15
sI1991
I9
sI1992
I20
sI1993
I12
sI1994
I16
sI1995
I15
sI1996
I12
sI1997
I13
sI1998
I8
sI1999
I5
sI2000
I9
sI2001
I7
sI2002
I4
sI2003
I10
sI2004
I5
sI2005
I3
sI2006
I9
sI2007
I7
sI2008
I8
sI2009
I8
sI2010
I6
sI2011
I3
sI2012
I5
sI2013
I4
sI2014
I11
sI2015
I5
sI1916
I1
ssb(dp149
s(ipubmed_timeline
Term
p150
(dp151
g10
Vprevalence
p152
sg12
(dp153
I1925
I1
sI1943
I1
sI1948
I1
sI1949
I3
sI1951
I1
sI1953
I1
sI1954
I2
sI1956
I1
sI1960
I1
sI1884
I1
sI1962
I1
sI1963
I1
sI1964
I1
sI1967
I1
sI1972
I2
sI1973
I1
sI1974
I4
sI1976
I1
sI1977
I3
sI1980
I2
sI1981
I1
sI1982
I3
sI1983
I1
sI1984
I4
sI1985
I2
sI1986
I4
sI1987
I7
sI1988
I5
sI1989
I8
sI1990
I10
sI1991
I6
sI1992
I14
sI1993
I18
sI1994
I15
sI1995
I18
sI1996
I7
sI1997
I6
sI1998
I12
sI1999
I14
sI2000
I13
sI2001
I20
sI2002
I13
sI2003
I29
sI2004
I16
sI2005
I16
sI2006
I24
sI2007
I23
sI2008
I39
sI2009
I34
sI2010
I35
sI2011
I31
sI2012
I61
sI2013
I44
sI2014
I53
sI2015
I44
sI1905
I1
sI1912
I18
ssb(dp154
s(ipubmed_timeline
Term
p155
(dp156
g10
Vassociated
p157
sg12
(dp158
I1923
I2
sI1924
I1
sI1927
I1
sI1934
I2
sI1940
I1
sI1942
I2
sI1946
I1
sI1947
I3
sI1948
I3
sI1949
I3
sI1950
I2
sI1951
I1
sI1952
I5
sI1953
I4
sI1954
I3
sI1955
I3
sI1956
I1
sI1957
I1
sI1958
I2
sI1960
I1
sI1961
I5
sI1962
I1
sI1963
I3
sI1964
I7
sI1965
I5
sI1966
I5
sI1967
I4
sI1968
I1
sI1969
I1
sI1970
I4
sI1971
I7
sI1972
I2
sI1973
I4
sI1974
I6
sI1976
I4
sI1977
I4
sI1978
I5
sI1979
I2
sI1980
I4
sI1981
I5
sI1982
I1
sI1983
I5
sI1984
I4
sI1985
I2
sI1986
I1
sI1987
I5
sI1988
I5
sI1989
I7
sI1990
I4
sI1991
I9
sI1992
I14
sI1993
I8
sI1994
I9
sI1995
I9
sI1996
I5
sI1997
I5
sI1998
I5
sI1999
I11
sI2000
I7
sI2001
I10
sI2002
I3
sI2003
I8
sI2004
I2
sI2005
I15
sI2006
I7
sI2007
I13
sI2008
I16
sI2009
I16
sI2010
I11
sI2011
I27
sI2012
I21
sI2013
I24
sI2014
I34
sI2015
I21
sI1910
I1
ssb(dp159
s(ipubmed_timeline
Term
p160
(dp161
g10
VRISK
p162
sg12
(dp163
I1951
I1
sI1953
I2
sI1964
I3
sI1972
I2
sI1973
I1
sI1974
I1
sI1976
I1
sI1978
I1
sI1979
I1
sI1980
I1
sI1981
I1
sI1982
I3
sI1984
I1
sI1985
I4
sI1986
I2
sI1987
I2
sI1988
I7
sI1989
I8
sI1990
I9
sI1991
I9
sI1992
I8
sI1993
I10
sI1994
I17
sI1995
I10
sI1996
I13
sI1997
I18
sI1998
I12
sI1999
I16
sI2000
I12
sI2001
I16
sI2002
I14
sI2003
I18
sI2004
I6
sI2005
I12
sI2006
I25
sI2007
I23
sI2008
I29
sI2009
I28
sI2010
I29
sI2011
I29
sI2012
I33
sI2013
I33
sI2014
I44
sI2015
I35
ssb(dp164
s(ipubmed_timeline
Term
p165
(dp166
g10
VCONGENITAL
p167
sg12
(dp168
I1875
I1
sI1892
I1
sI1901
I1
sI1903
I1
sI1906
I1
sI1908
I2
sI1909
I3
sI1910
I1
sI1911
I2
sI1912
I19
sI1913
I5
sI1914
I2
sI1915
I6
sI1916
I1
sI1917
I2
sI1918
I3
sI1920
I1
sI1921
I16
sI1922
I2
sI1923
I4
sI1924
I2
sI1925
I3
sI1926
I5
sI1927
I3
sI1929
I1
sI1930
I2
sI1931
I3
sI1932
I2
sI1934
I9
sI1935
I1
sI1936
I2
sI1938
I2
sI1939
I1
sI1941
I1
sI1943
I1
sI1944
I4
sI1945
I7
sI1946
I10
sI1947
I17
sI1948
I18
sI1949
I22
sI1950
I84
sI1951
I75
sI1952
I67
sI1953
I41
sI1954
I33
sI1955
I26
sI1956
I27
sI1957
I17
sI1958
I18
sI1959
I9
sI1960
I11
sI1961
I10
sI1962
I21
sI1963
I19
sI1964
I17
sI1965
I20
sI1966
I18
sI1967
I20
sI1968
I13
sI1969
I18
sI1970
I26
sI1971
I24
sI1972
I12
sI1973
I20
sI1974
I12
sI1975
I8
sI1976
I21
sI1977
I16
sI1978
I15
sI1979
I15
sI1980
I15
sI1981
I14
sI1982
I16
sI1983
I20
sI1984
I8
sI1985
I19
sI1986
I12
sI1987
I13
sI1988
I28
sI1989
I27
sI1990
I21
sI1991
I35
sI1992
I40
sI1993
I30
sI1994
I26
sI1995
I20
sI1996
I8
sI1997
I12
sI1998
I13
sI1999
I12
sI2000
I4
sI2001
I14
sI2002
I17
sI2003
I11
sI2004
I15
sI2005
I14
sI2006
I19
sI2007
I24
sI2008
I14
sI2009
I13
sI2010
I27
sI2011
I17
sI2012
I24
sI2013
I37
sI2014
I16
sI2015
I23
ssb(dp169
s(ipubmed_timeline
Term
p170
(dp171
g10
Vhiv
p172
sg12
(dp173
I1987
I11
sI1988
I19
sI1989
I28
sI1990
I29
sI1991
I36
sI1992
I29
sI1993
I41
sI1994
I40
sI1995
I26
sI1996
I35
sI1997
I32
sI1998
I35
sI1999
I32
sI2000
I30
sI2001
I42
sI2002
I34
sI2003
I48
sI2004
I51
sI2005
I53
sI2006
I69
sI2007
I48
sI2008
I72
sI2009
I81
sI2010
I69
sI2011
I77
sI2012
I115
sI2013
I101
sI2014
I133
sI2015
I128
ssb(dp174
s(ipubmed_timeline
Term
p175
(dp176
g10
Vpatients
p177
sg12
(dp178
I1925
I1
sI1926
I1
sI1943
I1
sI1944
I1
sI1945
I2
sI1946
I7
sI1947
I4
sI1948
I7
sI1949
I12
sI1950
I13
sI1951
I14
sI1952
I11
sI1953
I6
sI1954
I14
sI1955
I7
sI1956
I6
sI1957
I7
sI1958
I9
sI1959
I17
sI1960
I10
sI1961
I15
sI1962
I15
sI1963
I10
sI1964
I16
sI1965
I14
sI1966
I23
sI1967
I18
sI1968
I12
sI1969
I16
sI1970
I21
sI1971
I14
sI1972
I15
sI1973
I14
sI1974
I17
sI1975
I23
sI1976
I11
sI1977
I13
sI1978
I10
sI1979
I10
sI1980
I13
sI1981
I16
sI1982
I16
sI1983
I25
sI1984
I25
sI1985
I21
sI1986
I22
sI1987
I21
sI1988
I33
sI1989
I26
sI1990
I31
sI1991
I19
sI1992
I16
sI1993
I23
sI1994
I28
sI1995
I21
sI1996
I27
sI1997
I13
sI1998
I12
sI1999
I16
sI2000
I18
sI2001
I15
sI2002
I7
sI2003
I21
sI2004
I15
sI2005
I21
sI2006
I22
sI2007
I20
sI2008
I20
sI2009
I26
sI2010
I28
sI2011
I26
sI2012
I38
sI2013
I37
sI2014
I34
sI2015
I36
ssb(dp179
s(ipubmed_timeline
Term
p180
(dp181
g10
VBLOOD
p182
sg12
(dp183
I1934
I2
sI1936
I1
sI1939
I1
sI1942
I1
sI1945
I2
sI1946
I14
sI1947
I7
sI1948
I8
sI1949
I7
sI1950
I28
sI1951
I30
sI1952
I24
sI1953
I21
sI1954
I22
sI1955
I20
sI1956
I9
sI1957
I20
sI1958
I12
sI1959
I8
sI1960
I3
sI1961
I6
sI1962
I9
sI1963
I12
sI1964
I9
sI1965
I15
sI1966
I8
sI1967
I8
sI1968
I9
sI1969
I15
sI1970
I8
sI1971
I16
sI1972
I7
sI1973
I8
sI1974
I11
sI1975
I8
sI1976
I5
sI1977
I8
sI1978
I7
sI1979
I9
sI1980
I6
sI1981
I4
sI1982
I13
sI1983
I6
sI1984
I9
sI1985
I5
sI1986
I3
sI1987
I9
sI1988
I7
sI1989
I11
sI1990
I9
sI1991
I15
sI1992
I9
sI1993
I12
sI1994
I9
sI1995
I18
sI1996
I9
sI1997
I8
sI1998
I12
sI1999
I9
sI2000
I9
sI2001
I9
sI2002
I16
sI2003
I18
sI2004
I9
sI2005
I9
sI2006
I10
sI2007
I17
sI2008
I13
sI2009
I23
sI2010
I12
sI2011
I15
sI2012
I28
sI2013
I27
sI2014
I33
sI2015
I28
sI1915
I1
ssb(dp184
s(ipubmed_timeline
Term
p185
(dp186
g10
Vpatient
p187
sg12
(dp188
I1940
I1
sI1945
I2
sI1946
I8
sI1947
I2
sI1949
I2
sI1950
I1
sI1951
I2
sI1952
I2
sI1953
I6
sI1954
I4
sI1955
I1
sI1956
I2
sI1957
I1
sI1958
I1
sI1959
I1
sI1960
I2
sI1961
I1
sI1962
I6
sI1963
I2
sI1964
I3
sI1965
I6
sI1966
I8
sI1967
I1
sI1968
I2
sI1970
I3
sI1971
I2
sI1972
I2
sI1973
I2
sI1974
I4
sI1975
I7
sI1976
I6
sI1977
I2
sI1978
I2
sI1979
I4
sI1980
I7
sI1981
I5
sI1983
I2
sI1984
I2
sI1985
I8
sI1986
I6
sI1987
I11
sI1988
I8
sI1989
I7
sI1990
I8
sI1991
I2
sI1992
I7
sI1993
I10
sI1994
I8
sI1995
I8
sI1996
I7
sI1997
I8
sI1998
I8
sI1999
I7
sI2000
I11
sI2001
I5
sI2002
I9
sI2003
I12
sI2004
I12
sI2005
I25
sI2006
I15
sI2007
I13
sI2008
I10
sI2009
I18
sI2010
I17
sI2011
I20
sI2012
I20
sI2013
I35
sI2014
I24
sI2015
I13
sI1908
I1
sI1911
I1
sI1915
I1
ssb(dp189
s(ipubmed_timeline
Term
p190
(dp191
g10
Vtests
p192
sg12
(dp193
I1926
I1
sI1931
I4
sI1935
I1
sI1937
I1
sI1939
I3
sI1940
I2
sI1942
I1
sI1943
I6
sI1944
I1
sI1945
I2
sI1946
I17
sI1947
I29
sI1948
I24
sI1949
I13
sI1950
I17
sI1951
I18
sI1952
I28
sI1953
I19
sI1954
I27
sI1955
I20
sI1956
I13
sI1957
I17
sI1958
I19
sI1959
I17
sI1960
I11
sI1961
I11
sI1962
I10
sI1963
I11
sI1964
I12
sI1965
I18
sI1966
I13
sI1967
I17
sI1968
I15
sI1969
I14
sI1970
I23
sI1971
I15
sI1972
I15
sI1973
I12
sI1974
I9
sI1975
I7
sI1976
I15
sI1977
I13
sI1978
I9
sI1979
I11
sI1980
I8
sI1981
I6
sI1982
I15
sI1983
I7
sI1984
I7
sI1985
I8
sI1986
I6
sI1987
I6
sI1988
I3
sI1989
I5
sI1990
I9
sI1991
I4
sI1992
I6
sI1993
I5
sI1994
I9
sI1995
I4
sI1996
I7
sI1997
I2
sI1998
I5
sI1999
I3
sI2000
I6
sI2001
I3
sI2002
I6
sI2003
I5
sI2004
I6
sI2005
I4
sI2006
I7
sI2007
I10
sI2008
I8
sI2009
I2
sI2010
I6
sI2011
I7
sI2012
I8
sI2013
I10
sI2014
I11
sI2015
I10
sI1911
I1
ssb(dp194
s(ipubmed_timeline
Term
p195
(dp196
g10
Vtest
p197
sg12
(dp198
I1909
I1
sI1910
I1
sI1916
I1
sI1917
I1
sI1918
I1
sI1921
I2
sI1923
I1
sI1924
I3
sI1929
I3
sI1930
I1
sI1931
I1
sI1932
I1
sI1934
I1
sI1935
I2
sI1939
I2
sI1940
I1
sI1942
I1
sI1943
I1
sI1945
I1
sI1946
I20
sI1947
I22
sI1948
I25
sI1949
I12
sI1950
I27
sI1951
I30
sI1952
I65
sI1953
I69
sI1954
I52
sI1955
I55
sI1956
I60
sI1957
I51
sI1958
I47
sI1959
I31
sI1960
I33
sI1961
I24
sI1962
I28
sI1963
I23
sI1964
I35
sI1965
I29
sI1966
I33
sI1967
I41
sI1968
I42
sI1969
I31
sI1970
I25
sI1971
I36
sI1972
I31
sI1973
I31
sI1974
I34
sI1975
I24
sI1976
I26
sI1977
I19
sI1978
I24
sI1979
I16
sI1980
I18
sI1981
I17
sI1982
I15
sI1983
I19
sI1984
I18
sI1985
I11
sI1986
I10
sI1987
I6
sI1988
I2
sI1989
I6
sI1990
I5
sI1991
I10
sI1992
I8
sI1993
I5
sI1994
I9
sI1995
I4
sI1996
I6
sI1997
I4
sI1998
I5
sI1999
I8
sI2000
I5
sI2001
I12
sI2002
I5
sI2003
I3
sI2004
I4
sI2005
I5
sI2006
I6
sI2007
I8
sI2008
I8
sI2009
I12
sI2010
I7
sI2011
I9
sI2012
I10
sI2013
I7
sI2014
I8
sI2015
I18
ssb(dp199
s(ipubmed_timeline
Term
p200
(dp201
g10
Vhuman
p202
sg12
(dp203
I1939
I1
sI1945
I2
sI1946
I6
sI1947
I1
sI1949
I1
sI1950
I3
sI1951
I4
sI1953
I3
sI1954
I3
sI1955
I5
sI1956
I3
sI1957
I4
sI1958
I1
sI1959
I4
sI1960
I2
sI1961
I1
sI1962
I4
sI1963
I2
sI1964
I7
sI1965
I3
sI1966
I9
sI1967
I2
sI1968
I5
sI1969
I6
sI1970
I5
sI1971
I2
sI1972
I4
sI1973
I4
sI1974
I7
sI1975
I5
sI1976
I5
sI1977
I3
sI1978
I2
sI1979
I2
sI1981
I5
sI1982
I3
sI1983
I4
sI1984
I7
sI1985
I4
sI1986
I6
sI1987
I13
sI1988
I21
sI1989
I31
sI1990
I37
sI1991
I21
sI1992
I32
sI1993
I23
sI1994
I26
sI1995
I34
sI1996
I23
sI1997
I21
sI1998
I12
sI1999
I23
sI2000
I15
sI2001
I12
sI2002
I10
sI2003
I20
sI2004
I8
sI2005
I12
sI2006
I17
sI2007
I11
sI2008
I13
sI2009
I18
sI2010
I21
sI2011
I17
sI2012
I21
sI2013
I29
sI2014
I22
sI2015
I29
sI1908
I1
sI1916
I1
ssb(dp204
s(ipubmed_timeline
Term
p205
(dp206
g10
Vinfections
p207
sg12
(dp208
I1925
I1
sI1928
I3
sI1936
I2
sI1947
I1
sI1948
I1
sI1949
I1
sI1950
I1
sI1951
I3
sI1952
I3
sI1954
I1
sI1955
I2
sI1956
I2
sI1957
I1
sI1958
I5
sI1959
I1
sI1961
I5
sI1962
I2
sI1963
I1
sI1964
I8
sI1965
I3
sI1966
I2
sI1967
I3
sI1968
I3
sI1969
I6
sI1970
I1
sI1971
I5
sI1972
I6
sI1973
I8
sI1974
I7
sI1975
I6
sI1976
I9
sI1977
I7
sI1978
I6
sI1979
I11
sI1980
I3
sI1981
I8
sI1982
I5
sI1983
I12
sI1984
I3
sI1985
I10
sI1986
I10
sI1987
I6
sI1988
I6
sI1989
I6
sI1990
I9
sI1991
I17
sI1992
I8
sI1993
I14
sI1994
I13
sI1995
I14
sI1996
I11
sI1997
I12
sI1998
I12
sI1999
I22
sI2000
I15
sI2001
I26
sI2002
I30
sI2003
I28
sI2004
I27
sI2005
I45
sI2006
I45
sI2007
I43
sI2008
I50
sI2009
I61
sI2010
I64
sI2011
I54
sI2012
I68
sI2013
I60
sI2014
I77
sI2015
I64
sI1911
I1
ssb(dp209
ssS'node_dict_factory'
p210
c__builtin__
dict
p211
sS'edge_attr_dict_factory'
p212
g211
sS'edge'
p213
(dp214
g8
(dp215
g190
(dp216
S'w'
p217
I1
ssg100
(dp218
g217
I1
ssg8
(dp219
g217
I1
ssg150
(dp220
g217
I1
ssg205
(dp221
g217
I1
ssg30
(dp222
g217
I1
ssg35
(dp223
g217
I1
ssg50
(dp224
g217
I1
ssg165
(dp225
g217
I1
ssg105
(dp226
g217
I1
ssg110
(dp227
g217
I1
ssg170
(dp228
g217
I1
ssg175
(dp229
g217
I1
ssg115
(dp230
g217
I1
ssg180
(dp231
g217
I1
ssg120
(dp232
g217
I1
ssg125
(dp233
g217
I1
ssg130
(dp234
g217
I1
ssg135
(dp235
g217
I1
ssg15
(dp236
g217
I1
ssg140
(dp237
g217
I1
ssg20
(dp238
g217
I1
ssg160
(dp239
g217
I1
ssg45
(dp240
g217
I1
ssg55
(dp241
g217
I1
ssg25
(dp242
g217
I1
ssg155
(dp243
g217
I1
ssg60
(dp244
g217
I1
ssg65
(dp245
g217
I1
ssg70
(dp246
g217
I1
ssg75
(dp247
g217
I1
ssg145
(dp248
g217
I1
ssg80
(dp249
g217
I1
ssg85
(dp250
g217
I1
ssg90
(dp251
g217
I1
ssg40
(dp252
g217
I1
ssg95
(dp253
g217
I1
ssg195
(dp254
g217
I1
ssg200
(dp255
g217
I1
sssg15
(dp256
g30
(dp257
g217
I1
ssg35
(dp258
g217
I1
ssg50
(dp259
g217
I1
ssg55
(dp260
g217
I1
ssg190
(dp261
g217
I1
ssg40
(dp262
g217
I1
ssg110
(dp263
g217
I1
ssg175
(dp264
g217
I1
ssg115
(dp265
g217
I1
ssg120
(dp266
g217
I1
ssg125
(dp267
g217
I1
ssg130
(dp268
g217
I1
ssg185
(dp269
g217
I1
ssg135
(dp270
g217
I1
ssg195
(dp271
g217
I1
ssg60
(dp272
g217
I1
ssg65
(dp273
g217
I1
ssg70
(dp274
g217
I1
ssg75
(dp275
g217
I1
ssg80
(dp276
g217
I1
ssg85
(dp277
g217
I1
ssg90
(dp278
g217
I1
ssg100
(dp279
g217
I1
ssg25
(dp280
g217
I1
ssg20
(dp281
g217
I1
ssg165
(dp282
g217
I1
ssg155
(dp283
g217
I1
ssg160
(dp284
g217
I1
ssg105
(dp285
g217
I1
ssg95
(dp286
g217
I1
ssg145
(dp287
g217
I1
ssg170
(dp288
g217
I1
ssg8
g236
sg200
(dp289
g217
I1
ssg140
(dp290
g217
I1
ssg150
(dp291
g217
I1
ssg45
(dp292
g217
I1
ssg180
(dp293
g217
I1
ssg205
(dp294
g217
I1
sssg20
(dp295
g200
(dp296
g217
I1
ssg100
(dp297
g217
I1
ssg155
(dp298
g217
I1
ssg45
(dp299
g217
I1
ssg30
(dp300
g217
I1
ssg35
(dp301
g217
I1
ssg50
(dp302
g217
I1
ssg40
(dp303
g217
I1
ssg110
(dp304
g217
I1
ssg170
(dp305
g217
I1
ssg175
(dp306
g217
I1
ssg115
(dp307
g217
I1
ssg180
(dp308
g217
I1
ssg120
(dp309
g217
I1
ssg125
(dp310
g217
I1
ssg130
(dp311
g217
I1
ssg135
(dp312
g217
I1
ssg15
g281
sg140
(dp313
g217
I1
ssg150
(dp314
g217
I1
ssg95
(dp315
g217
I1
ssg160
(dp316
g217
I1
ssg8
g238
sg145
(dp317
g217
I1
ssg55
(dp318
g217
I1
ssg80
(dp319
g217
I1
ssg25
(dp320
g217
I1
ssg60
(dp321
g217
I1
ssg65
(dp322
g217
I1
ssg70
(dp323
g217
I1
ssg75
(dp324
g217
I1
ssg85
(dp325
g217
I1
ssg90
(dp326
g217
I1
ssg185
(dp327
g217
I1
ssg165
(dp328
g217
I1
ssg105
(dp329
g217
I1
ssg195
(dp330
g217
I1
ssg205
(dp331
g217
I1
ssg190
(dp332
g217
I1
sssg25
(dp333
g80
(dp334
g217
I1
ssg50
(dp335
g217
I1
ssg40
(dp336
g217
I1
ssg105
(dp337
g217
I1
ssg110
(dp338
g217
I1
ssg170
(dp339
g217
I1
ssg175
(dp340
g217
I1
ssg115
(dp341
g217
I1
ssg155
(dp342
g217
I1
ssg125
(dp343
g217
I1
ssg185
(dp344
g217
I1
ssg135
(dp345
g217
I1
ssg120
(dp346
g217
I1
ssg60
(dp347
g217
I1
ssg65
(dp348
g217
I1
ssg70
(dp349
g217
I1
ssg145
(dp350
g217
I1
ssg85
(dp351
g217
I1
ssg90
(dp352
g217
I1
ssg100
(dp353
g217
I1
ssg15
g280
sg140
(dp354
g217
I1
ssg20
g320
sg55
(dp355
g217
I1
ssg165
(dp356
g217
I1
ssg95
(dp357
g217
I1
ssg8
g242
sg200
(dp358
g217
I1
ssg190
(dp359
g217
I1
ssg160
(dp360
g217
I1
ssg75
(dp361
g217
I1
ssg45
(dp362
g217
I1
ssg195
(dp363
g217
I1
ssg180
(dp364
g217
I1
ssg205
(dp365
g217
I1
sssg30
(dp366
g155
(dp367
g217
I1
ssg35
(dp368
g217
I1
ssg15
g257
sg55
(dp369
g217
I1
ssg110
(dp370
g217
I1
ssg175
(dp371
g217
I1
ssg115
(dp372
g217
I1
ssg180
(dp373
g217
I1
ssg120
(dp374
g217
I1
ssg125
(dp375
g217
I1
ssg130
(dp376
g217
I1
ssg185
(dp377
g217
I1
ssg135
(dp378
g217
I1
ssg8
g222
sg100
(dp379
g217
I1
ssg140
(dp380
g217
I1
ssg20
g300
sg150
(dp381
g217
I1
ssg45
(dp382
g217
I1
ssg145
(dp383
g217
I1
ssg50
(dp384
g217
I1
ssg60
(dp385
g217
I1
ssg65
(dp386
g217
I1
ssg70
(dp387
g217
I1
ssg75
(dp388
g217
I1
ssg80
(dp389
g217
I1
ssg90
(dp390
g217
I1
ssg160
(dp391
g217
I1
ssg165
(dp392
g217
I1
ssg95
(dp393
g217
I1
ssg170
(dp394
g217
I1
ssg195
(dp395
g217
I1
ssg200
(dp396
g217
I1
ssg205
(dp397
g217
I1
ssg190
(dp398
g217
I1
sssg35
(dp399
g140
(dp400
g217
I1
ssg150
(dp401
g217
I1
ssg155
(dp402
g217
I1
ssg30
g368
sg15
g258
sg55
(dp403
g217
I1
ssg110
(dp404
g217
I1
ssg175
(dp405
g217
I1
ssg180
(dp406
g217
I1
ssg120
(dp407
g217
I1
ssg125
(dp408
g217
I1
ssg130
(dp409
g217
I1
ssg185
(dp410
g217
I1
ssg135
(dp411
g217
I1
ssg8
g223
sg100
(dp412
g217
I1
ssg20
g301
sg50
(dp413
g217
I1
ssg60
(dp414
g217
I1
ssg65
(dp415
g217
I1
ssg70
(dp416
g217
I1
ssg75
(dp417
g217
I1
ssg145
(dp418
g217
I1
ssg80
(dp419
g217
I1
ssg90
(dp420
g217
I1
ssg160
(dp421
g217
I1
ssg40
(dp422
g217
I1
ssg95
(dp423
g217
I1
ssg170
(dp424
g217
I1
ssg165
(dp425
g217
I1
ssg115
(dp426
g217
I1
ssg45
(dp427
g217
I1
ssg190
(dp428
g217
I1
ssg195
(dp429
g217
I1
ssg200
(dp430
g217
I1
ssg205
(dp431
g217
I1
sssg40
(dp432
g8
g252
sg100
(dp433
g217
I1
ssg45
(dp434
g217
I1
ssg205
(dp435
g217
I1
ssg35
g422
sg15
g262
sg50
(dp436
g217
I1
ssg105
(dp437
g217
I1
ssg110
(dp438
g217
I1
ssg170
(dp439
g217
I1
ssg175
(dp440
g217
I1
ssg115
(dp441
g217
I1
ssg180
(dp442
g217
I1
ssg120
(dp443
g217
I1
ssg125
(dp444
g217
I1
ssg185
(dp445
g217
I1
ssg135
(dp446
g217
I1
ssg20
g303
sg140
(dp447
g217
I1
ssg150
(dp448
g217
I1
ssg155
(dp449
g217
I1
ssg145
(dp450
g217
I1
ssg25
g336
sg60
(dp451
g217
I1
ssg65
(dp452
g217
I1
ssg70
(dp453
g217
I1
ssg75
(dp454
g217
I1
ssg80
(dp455
g217
I1
ssg85
(dp456
g217
I1
ssg90
(dp457
g217
I1
ssg160
(dp458
g217
I1
ssg55
(dp459
g217
I1
ssg95
(dp460
g217
I1
ssg165
(dp461
g217
I1
ssg200
(dp462
g217
I1
ssg190
(dp463
g217
I1
ssg195
(dp464
g217
I1
sssg45
(dp465
g8
g240
sg150
(dp466
g217
I1
ssg155
(dp467
g217
I1
ssg30
g382
sg35
g427
sg50
(dp468
g217
I1
ssg105
(dp469
g217
I1
ssg110
(dp470
g217
I1
ssg170
(dp471
g217
I1
ssg175
(dp472
g217
I1
ssg180
(dp473
g217
I1
ssg120
(dp474
g217
I1
ssg130
(dp475
g217
I1
ssg185
(dp476
g217
I1
ssg135
(dp477
g217
I1
ssg100
(dp478
g217
I1
ssg15
g292
sg20
g299
sg140
(dp479
g217
I1
ssg205
(dp480
g217
I1
ssg55
(dp481
g217
I1
ssg85
(dp482
g217
I1
ssg25
g362
sg60
(dp483
g217
I1
ssg65
(dp484
g217
I1
ssg70
(dp485
g217
I1
ssg75
(dp486
g217
I1
ssg145
(dp487
g217
I1
ssg80
(dp488
g217
I1
ssg90
(dp489
g217
I1
ssg165
(dp490
g217
I1
ssg40
g434
sg95
(dp491
g217
I1
ssg125
(dp492
g217
I1
ssg200
(dp493
g217
I1
ssg190
(dp494
g217
I1
ssg195
(dp495
g217
I1
sssg50
(dp496
g30
g384
sg35
g413
sg25
g335
sg165
(dp497
g217
I1
ssg110
(dp498
g217
I1
ssg40
g436
sg170
(dp499
g217
I1
ssg175
(dp500
g217
I1
ssg115
(dp501
g217
I1
ssg180
(dp502
g217
I1
ssg120
(dp503
g217
I1
ssg130
(dp504
g217
I1
ssg185
(dp505
g217
I1
ssg135
(dp506
g217
I1
ssg125
(dp507
g217
I1
ssg60
(dp508
g217
I1
ssg75
(dp509
g217
I1
ssg80
(dp510
g217
I1
ssg85
(dp511
g217
I1
ssg90
(dp512
g217
I1
ssg200
(dp513
g217
I1
ssg15
g259
sg20
g302
sg190
(dp514
g217
I1
ssg65
(dp515
g217
I1
ssg95
(dp516
g217
I1
ssg160
(dp517
g217
I1
ssg105
(dp518
g217
I1
ssg145
(dp519
g217
I1
ssg8
g224
sg100
(dp520
g217
I1
ssg140
(dp521
g217
I1
ssg150
(dp522
g217
I1
ssg70
(dp523
g217
I1
ssg155
(dp524
g217
I1
ssg195
(dp525
g217
I1
ssg205
(dp526
g217
I1
ssg45
g468
sg55
(dp527
g217
I1
sssg55
(dp528
g180
(dp529
g217
I1
ssg80
(dp530
g217
I1
ssg35
g403
sg30
g369
sg165
(dp531
g217
I1
ssg40
g459
sg110
(dp532
g217
I1
ssg175
(dp533
g217
I1
ssg115
(dp534
g217
I1
ssg50
g527
sg25
g355
sg20
g318
sg125
(dp535
g217
I1
ssg135
(dp536
g217
I1
ssg120
(dp537
g217
I1
ssg60
(dp538
g217
I1
ssg65
(dp539
g217
I1
ssg70
(dp540
g217
I1
ssg75
(dp541
g217
I1
ssg145
(dp542
g217
I1
ssg85
(dp543
g217
I1
ssg185
(dp544
g217
I1
ssg90
(dp545
g217
I1
ssg130
(dp546
g217
I1
ssg95
(dp547
g217
I1
ssg160
(dp548
g217
I1
ssg15
g260
sg140
(dp549
g217
I1
ssg105
(dp550
g217
I1
ssg170
(dp551
g217
I1
ssg195
(dp552
g217
I1
ssg100
(dp553
g217
I1
ssg8
g241
sg200
(dp554
g217
I1
ssg190
(dp555
g217
I1
ssg150
(dp556
g217
I1
ssg45
g481
sg205
(dp557
g217
I1
sssg60
(dp558
g8
g244
sg100
(dp559
g217
I1
ssg155
(dp560
g217
I1
ssg20
g321
sg25
g347
sg30
g385
sg165
(dp561
g217
I1
ssg40
g451
sg150
(dp562
g217
I1
ssg50
g508
sg15
g272
sg55
g538
sg60
(dp563
g217
I1
ssg65
(dp564
g217
I1
ssg70
(dp565
g217
I1
ssg75
(dp566
g217
I1
ssg145
(dp567
g217
I1
ssg80
(dp568
g217
I1
ssg85
(dp569
g217
I1
ssg90
(dp570
g217
I1
ssg95
(dp571
g217
I1
ssg105
(dp572
g217
I1
ssg110
(dp573
g217
I1
ssg170
(dp574
g217
I1
ssg175
(dp575
g217
I1
ssg115
(dp576
g217
I1
ssg125
(dp577
g217
I1
ssg130
(dp578
g217
I1
ssg185
(dp579
g217
I1
ssg135
(dp580
g217
I1
ssg140
(dp581
g217
I1
ssg35
g414
sg160
(dp582
g217
I1
ssg45
g483
sg180
(dp583
g217
I1
ssg120
(dp584
g217
I1
ssg195
(dp585
g217
I1
ssg200
(dp586
g217
I1
ssg205
(dp587
g217
I1
ssg190
(dp588
g217
I1
sssg65
(dp589
g8
g245
sg190
(dp590
g217
I1
ssg100
(dp591
g217
I1
ssg150
(dp592
g217
I1
ssg45
g484
sg30
g386
sg35
g415
sg55
g539
sg105
(dp593
g217
I1
ssg110
(dp594
g217
I1
ssg170
(dp595
g217
I1
ssg175
(dp596
g217
I1
ssg115
(dp597
g217
I1
ssg180
(dp598
g217
I1
ssg120
(dp599
g217
I1
ssg125
(dp600
g217
I1
ssg130
(dp601
g217
I1
ssg185
(dp602
g217
I1
ssg135
(dp603
g217
I1
ssg15
g273
sg20
g322
sg140
(dp604
g217
I1
ssg155
(dp605
g217
I1
ssg160
(dp606
g217
I1
ssg205
(dp607
g217
I1
ssg145
(dp608
g217
I1
ssg50
g515
sg25
g348
sg60
g564
sg70
(dp609
g217
I1
ssg75
(dp610
g217
I1
ssg80
(dp611
g217
I1
ssg85
(dp612
g217
I1
ssg90
(dp613
g217
I1
ssg165
(dp614
g217
I1
ssg95
(dp615
g217
I1
ssg40
g452
sg200
(dp616
g217
I1
ssg195
(dp617
g217
I1
sssg70
(dp618
g200
(dp619
g217
I1
ssg8
g246
sg100
(dp620
g217
I1
ssg150
(dp621
g217
I1
ssg155
(dp622
g217
I1
ssg160
(dp623
g217
I1
ssg30
g387
sg35
g416
sg55
g540
sg165
(dp624
g217
I1
ssg40
g453
sg105
(dp625
g217
I1
ssg110
(dp626
g217
I1
ssg170
(dp627
g217
I1
ssg175
(dp628
g217
I1
ssg115
(dp629
g217
I1
ssg180
(dp630
g217
I1
ssg120
(dp631
g217
I1
ssg125
(dp632
g217
I1
ssg130
(dp633
g217
I1
ssg185
(dp634
g217
I1
ssg135
(dp635
g217
I1
ssg15
g274
sg20
g323
sg140
(dp636
g217
I1
ssg95
(dp637
g217
I1
ssg45
g485
sg50
g523
sg25
g349
sg60
g565
sg65
g609
sg70
(dp638
g217
I1
ssg75
(dp639
g217
I1
ssg145
(dp640
g217
I1
ssg80
(dp641
g217
I1
ssg85
(dp642
g217
I1
ssg90
(dp643
g217
I1
ssg195
(dp644
g217
I1
ssg205
(dp645
g217
I1
ssg190
(dp646
g217
I1
sssg75
(dp647
g8
g247
sg30
g388
sg35
g417
sg50
g509
sg105
(dp648
g217
I1
ssg110
(dp649
g217
I1
ssg170
(dp650
g217
I1
ssg175
(dp651
g217
I1
ssg115
(dp652
g217
I1
ssg180
(dp653
g217
I1
ssg120
(dp654
g217
I1
ssg125
(dp655
g217
I1
ssg130
(dp656
g217
I1
ssg185
(dp657
g217
I1
ssg135
(dp658
g217
I1
ssg100
(dp659
g217
I1
ssg15
g275
sg140
(dp660
g217
I1
ssg20
g324
sg155
(dp661
g217
I1
ssg160
(dp662
g217
I1
ssg45
g486
sg205
(dp663
g217
I1
ssg55
g541
sg150
(dp664
g217
I1
ssg25
g361
sg60
g566
sg65
g610
sg70
g639
sg75
(dp665
g217
I1
ssg145
(dp666
g217
I1
ssg80
(dp667
g217
I1
ssg85
(dp668
g217
I1
ssg90
(dp669
g217
I1
ssg165
(dp670
g217
I1
ssg95
(dp671
g217
I1
ssg40
g454
sg195
(dp672
g217
I1
ssg200
(dp673
g217
I1
ssg190
(dp674
g217
I1
sssg80
(dp675
g30
g389
sg50
g510
sg55
g530
sg165
(dp676
g217
I1
ssg40
g455
sg170
(dp677
g217
I1
ssg175
(dp678
g217
I1
ssg35
g419
sg120
(dp679
g217
I1
ssg135
(dp680
g217
I1
ssg125
(dp681
g217
I1
ssg60
g568
sg65
g611
sg70
g641
sg75
g667
sg145
(dp682
g217
I1
ssg85
(dp683
g217
I1
ssg185
(dp684
g217
I1
ssg90
(dp685
g217
I1
ssg130
(dp686
g217
I1
ssg25
g334
sg95
(dp687
g217
I1
ssg15
g276
sg140
(dp688
g217
I1
ssg20
g319
sg160
(dp689
g217
I1
ssg105
(dp690
g217
I1
ssg110
(dp691
g217
I1
ssg100
(dp692
g217
I1
ssg8
g249
sg200
(dp693
g217
I1
ssg190
(dp694
g217
I1
ssg150
(dp695
g217
I1
ssg155
(dp696
g217
I1
ssg115
(dp697
g217
I1
ssg195
(dp698
g217
I1
ssg180
(dp699
g217
I1
ssg45
g488
sg205
(dp700
g217
I1
sssg85
(dp701
g95
(dp702
g217
I1
ssg100
(dp703
g217
I1
ssg150
(dp704
g217
I1
ssg155
(dp705
g217
I1
ssg50
g511
sg105
(dp706
g217
I1
ssg110
(dp707
g217
I1
ssg170
(dp708
g217
I1
ssg175
(dp709
g217
I1
ssg115
(dp710
g217
I1
ssg180
(dp711
g217
I1
ssg120
(dp712
g217
I1
ssg125
(dp713
g217
I1
ssg135
(dp714
g217
I1
ssg8
g250
sg15
g277
sg20
g325
sg140
(dp715
g217
I1
ssg45
g482
sg55
g543
sg25
g351
sg60
g569
sg65
g612
sg70
g642
sg75
g668
sg145
(dp716
g217
I1
ssg80
g683
sg90
(dp717
g217
I1
ssg185
(dp718
g217
I1
ssg165
(dp719
g217
I1
ssg40
g456
sg130
(dp720
g217
I1
ssg200
(dp721
g217
I1
ssg205
(dp722
g217
I1
ssg190
(dp723
g217
I1
ssg195
(dp724
g217
I1
sssg90
(dp725
g155
(dp726
g217
I1
ssg30
g390
sg35
g420
sg55
g545
sg165
(dp727
g217
I1
ssg40
g457
sg105
(dp728
g217
I1
ssg110
(dp729
g217
I1
ssg170
(dp730
g217
I1
ssg175
(dp731
g217
I1
ssg115
(dp732
g217
I1
ssg180
(dp733
g217
I1
ssg120
(dp734
g217
I1
ssg20
g326
sg125
(dp735
g217
I1
ssg130
(dp736
g217
I1
ssg185
(dp737
g217
I1
ssg135
(dp738
g217
I1
ssg8
g251
sg100
(dp739
g217
I1
ssg15
g278
sg140
(dp740
g217
I1
ssg150
(dp741
g217
I1
ssg45
g489
sg50
g512
sg25
g352
sg195
(dp742
g217
I1
ssg60
g570
sg65
g613
sg70
g643
sg75
g669
sg145
(dp743
g217
I1
ssg80
g685
sg85
g717
sg160
(dp744
g217
I1
ssg95
(dp745
g217
I1
ssg190
(dp746
g217
I1
ssg200
(dp747
g217
I1
ssg205
(dp748
g217
I1
sssg95
(dp749
g30
g393
sg35
g423
sg50
g516
sg165
(dp750
g217
I1
ssg190
(dp751
g217
I1
ssg105
(dp752
g217
I1
ssg25
g357
sg125
(dp753
g217
I1
ssg130
(dp754
g217
I1
ssg135
(dp755
g217
I1
ssg120
(dp756
g217
I1
ssg60
g571
sg65
g615
sg70
g637
sg75
g671
sg80
g687
sg85
g702
sg185
(dp757
g217
I1
ssg115
(dp758
g217
I1
ssg90
g745
sg160
(dp759
g217
I1
ssg15
g286
sg140
(dp760
g217
I1
ssg20
g315
sg55
g547
sg40
g460
sg155
(dp761
g217
I1
ssg110
(dp762
g217
I1
ssg170
(dp763
g217
I1
ssg8
g253
sg100
(dp764
g217
I1
ssg175
(dp765
g217
I1
ssg200
(dp766
g217
I1
ssg45
g491
sg195
(dp767
g217
I1
ssg180
(dp768
g217
I1
ssg145
(dp769
g217
I1
ssg205
(dp770
g217
I1
sssg100
(dp771
g30
g379
sg35
g412
sg50
g520
sg40
g433
sg105
(dp772
g217
I1
ssg110
(dp773
g217
I1
ssg170
(dp774
g217
I1
ssg120
(dp775
g217
I1
ssg185
(dp776
g217
I1
ssg135
(dp777
g217
I1
ssg195
(dp778
g217
I1
ssg60
g559
sg8
g218
sg65
g591
sg70
g620
sg75
g659
sg85
g703
sg90
g739
sg130
(dp779
g217
I1
ssg25
g353
sg15
g279
sg190
(dp780
g217
I1
ssg55
g553
sg165
(dp781
g217
I1
ssg140
(dp782
g217
I1
ssg20
g297
sg150
(dp783
g217
I1
ssg155
(dp784
g217
I1
ssg160
(dp785
g217
I1
ssg95
g764
sg145
(dp786
g217
I1
ssg45
g478
sg80
g692
sg175
(dp787
g217
I1
ssg200
(dp788
g217
I1
ssg205
(dp789
g217
I1
ssg180
(dp790
g217
I1
sssg105
(dp791
g8
g226
sg15
g285
sg50
g518
sg165
(dp792
g217
I1
ssg110
(dp793
g217
I1
ssg170
(dp794
g217
I1
ssg175
(dp795
g217
I1
ssg115
(dp796
g217
I1
ssg180
(dp797
g217
I1
ssg120
(dp798
g217
I1
ssg130
(dp799
g217
I1
ssg185
(dp800
g217
I1
ssg135
(dp801
g217
I1
ssg100
g772
sg140
(dp802
g217
I1
ssg20
g329
sg155
(dp803
g217
I1
ssg160
(dp804
g217
I1
ssg45
g469
sg205
(dp805
g217
I1
ssg55
g550
sg25
g337
sg60
g572
sg65
g593
sg70
g625
sg75
g648
sg80
g690
sg85
g706
sg90
g728
sg40
g437
sg95
g752
sg145
(dp806
g217
I1
ssg200
(dp807
g217
I1
ssg190
(dp808
g217
I1
ssg195
(dp809
g217
I1
sssg110
(dp810
g30
g370
sg35
g404
sg50
g498
sg40
g438
sg105
g793
sg175
(dp811
g217
I1
ssg115
(dp812
g217
I1
ssg180
(dp813
g217
I1
ssg25
g338
sg155
(dp814
g217
I1
ssg130
(dp815
g217
I1
ssg135
(dp816
g217
I1
ssg120
(dp817
g217
I1
ssg125
(dp818
g217
I1
ssg60
g573
sg65
g594
sg70
g626
sg145
(dp819
g217
I1
ssg80
g691
sg85
g707
sg90
g729
sg15
g263
sg20
g304
sg55
g532
sg165
(dp820
g217
I1
ssg140
(dp821
g217
I1
ssg150
(dp822
g217
I1
ssg95
g762
sg160
(dp823
g217
I1
ssg185
(dp824
g217
I1
ssg170
(dp825
g217
I1
ssg195
(dp826
g217
I1
ssg8
g227
sg100
g773
sg200
(dp827
g217
I1
ssg190
(dp828
g217
I1
ssg75
g649
sg45
g470
sg205
(dp829
g217
I1
sssg115
(dp830
g30
g372
sg35
g426
sg55
g534
sg165
(dp831
g217
I1
ssg110
g812
sg40
g441
sg170
(dp832
g217
I1
ssg175
(dp833
g217
I1
ssg180
(dp834
g217
I1
ssg50
g501
sg120
(dp835
g217
I1
ssg130
(dp836
g217
I1
ssg135
(dp837
g217
I1
ssg125
(dp838
g217
I1
ssg195
(dp839
g217
I1
ssg60
g576
sg8
g230
sg80
g697
sg85
g710
sg90
g732
sg160
(dp840
g217
I1
ssg15
g265
sg140
(dp841
g217
I1
ssg20
g307
sg190
(dp842
g217
I1
ssg65
g597
sg155
(dp843
g217
I1
ssg105
g796
sg95
g758
sg25
g341
sg200
(dp844
g217
I1
ssg150
(dp845
g217
I1
ssg70
g629
sg75
g652
sg205
(dp846
g217
I1
sssg120
(dp847
g30
g374
sg35
g407
sg15
g266
sg165
(dp848
g217
I1
ssg40
g443
sg105
g798
sg110
g817
sg175
(dp849
g217
I1
ssg115
g835
sg180
(dp850
g217
I1
ssg125
(dp851
g217
I1
ssg130
(dp852
g217
I1
ssg185
(dp853
g217
I1
ssg135
(dp854
g217
I1
ssg8
g232
sg100
g775
sg140
(dp855
g217
I1
ssg20
g309
sg150
(dp856
g217
I1
ssg155
(dp857
g217
I1
ssg145
(dp858
g217
I1
ssg50
g503
sg25
g346
sg60
g584
sg65
g599
sg70
g631
sg75
g654
sg80
g679
sg85
g712
sg90
g734
sg160
(dp859
g217
I1
ssg55
g537
sg95
g756
sg170
(dp860
g217
I1
ssg45
g474
sg195
(dp861
g217
I1
ssg200
(dp862
g217
I1
ssg205
(dp863
g217
I1
ssg190
(dp864
g217
I1
sssg125
(dp865
g30
g375
sg35
g408
sg15
g267
sg50
g507
sg55
g535
sg165
(dp866
g217
I1
ssg110
g818
sg40
g444
sg170
(dp867
g217
I1
ssg175
(dp868
g217
I1
ssg115
g838
sg120
g851
sg130
(dp869
g217
I1
ssg185
(dp870
g217
I1
ssg135
(dp871
g217
I1
ssg60
g577
sg65
g600
sg75
g655
sg145
(dp872
g217
I1
ssg80
g681
sg85
g713
sg90
g735
sg25
g343
sg20
g310
sg160
(dp873
g217
I1
ssg95
g753
sg8
g233
sg200
(dp874
g217
I1
ssg140
(dp875
g217
I1
ssg190
(dp876
g217
I1
ssg150
(dp877
g217
I1
ssg70
g632
sg155
(dp878
g217
I1
ssg45
g492
sg195
(dp879
g217
I1
ssg180
(dp880
g217
I1
ssg205
(dp881
g217
I1
sssg130
(dp882
g30
g376
sg80
g686
sg50
g504
sg35
g409
sg85
g720
sg55
g546
sg170
(dp883
g217
I1
ssg175
(dp884
g217
I1
ssg120
g852
sg125
g869
sg135
(dp885
g217
I1
ssg195
(dp886
g217
I1
ssg60
g578
sg70
g633
sg90
g736
sg200
(dp887
g217
I1
ssg15
g268
sg20
g311
sg145
(dp888
g217
I1
ssg150
(dp889
g217
I1
ssg115
g836
sg160
(dp890
g217
I1
ssg105
g799
sg95
g754
sg45
g475
sg110
g815
sg100
g779
sg8
g234
sg65
g601
sg140
(dp891
g217
I1
ssg190
(dp892
g217
I1
ssg155
(dp893
g217
I1
ssg75
g656
sg180
(dp894
g217
I1
ssg205
(dp895
g217
I1
sssg135
(dp896
g35
g411
sg50
g506
sg25
g345
sg40
g446
sg105
g801
sg110
g816
sg115
g837
sg180
(dp897
g217
I1
ssg120
g854
sg170
(dp898
g217
I1
ssg125
g871
sg130
g885
sg60
g580
sg65
g603
sg70
g635
sg75
g658
sg145
(dp899
g217
I1
ssg80
g680
sg85
g714
sg185
(dp900
g217
I1
ssg90
g738
sg15
g270
sg20
g312
sg55
g536
sg8
g235
sg165
(dp901
g217
I1
ssg30
g378
sg95
g755
sg45
g477
sg100
g777
sg175
(dp902
g217
I1
ssg200
(dp903
g217
I1
ssg140
(dp904
g217
I1
ssg190
(dp905
g217
I1
ssg150
(dp906
g217
I1
ssg160
(dp907
g217
I1
ssg195
(dp908
g217
I1
ssg205
(dp909
g217
I1
sssg140
(dp910
g8
g237
sg115
g841
sg30
g380
sg35
g400
sg50
g521
sg165
(dp911
g217
I1
ssg40
g447
sg105
g802
sg110
g821
sg170
(dp912
g217
I1
ssg175
(dp913
g217
I1
ssg180
(dp914
g217
I1
ssg125
g875
sg130
g891
sg185
(dp915
g217
I1
ssg135
g904
sg100
g782
sg15
g290
sg140
(dp916
g217
I1
ssg20
g313
sg150
(dp917
g217
I1
ssg145
(dp918
g217
I1
ssg55
g549
sg25
g354
sg155
(dp919
g217
I1
ssg60
g581
sg65
g604
sg70
g636
sg75
g660
sg80
g688
sg85
g715
sg90
g740
sg160
(dp920
g217
I1
ssg95
g760
sg45
g479
sg120
g855
sg195
(dp921
g217
I1
ssg200
(dp922
g217
I1
ssg205
(dp923
g217
I1
ssg190
(dp924
g217
I1
sssg145
(dp925
g50
g519
sg120
g858
sg30
g383
sg55
g542
sg40
g450
sg170
(dp926
g217
I1
ssg175
(dp927
g217
I1
ssg180
(dp928
g217
I1
ssg90
g743
sg125
g872
sg135
g899
sg130
g888
sg60
g567
sg65
g608
sg70
g640
sg75
g666
sg80
g682
sg85
g716
sg25
g350
sg95
g769
sg200
(dp929
g217
I1
ssg15
g287
sg140
g918
sg20
g317
sg150
(dp930
g217
I1
ssg155
(dp931
g217
I1
ssg105
g806
sg185
(dp932
g217
I1
ssg165
(dp933
g217
I1
ssg110
g819
sg45
g487
sg100
g786
sg8
g248
sg190
(dp934
g217
I1
ssg160
(dp935
g217
I1
ssg35
g418
sg195
(dp936
g217
I1
ssg205
(dp937
g217
I1
sssg150
(dp938
g30
g381
sg50
g522
sg35
g401
sg165
(dp939
g217
I1
ssg190
(dp940
g217
I1
ssg40
g448
sg170
(dp941
g217
I1
ssg175
(dp942
g217
I1
ssg180
(dp943
g217
I1
ssg120
g856
sg125
g877
sg130
g889
sg135
g906
sg60
g562
sg75
g664
sg145
g930
sg80
g695
sg85
g704
sg115
g845
sg90
g741
sg160
(dp944
g217
I1
ssg200
(dp945
g217
I1
ssg65
g592
sg20
g314
sg155
(dp946
g217
I1
ssg15
g291
sg185
(dp947
g217
I1
ssg110
g822
sg195
(dp948
g217
I1
ssg100
g783
sg8
g220
sg140
g917
sg70
g621
sg45
g466
sg205
(dp949
g217
I1
ssg55
g556
ssg155
(dp950
g30
g367
sg35
g402
sg50
g524
sg165
(dp951
g217
I1
ssg190
(dp952
g217
I1
ssg40
g449
sg110
g814
sg170
(dp953
g217
I1
ssg115
g843
sg180
(dp954
g217
I1
ssg120
g857
sg125
g878
sg130
g893
sg195
(dp955
g217
I1
ssg60
g560
sg8
g243
sg65
g605
sg70
g622
sg75
g661
sg145
g931
sg80
g696
sg85
g705
sg90
g726
sg25
g342
sg15
g283
sg20
g298
sg105
g803
sg185
(dp956
g217
I1
ssg95
g761
sg100
g784
sg175
(dp957
g217
I1
ssg200
(dp958
g217
I1
ssg140
g919
sg150
g946
sg160
(dp959
g217
I1
ssg45
g467
sg205
(dp960
g217
I1
sssg160
(dp961
g30
g391
sg35
g421
sg55
g548
sg165
(dp962
g217
I1
ssg110
g823
sg170
(dp963
g217
I1
ssg175
(dp964
g217
I1
ssg115
g840
sg180
(dp965
g217
I1
ssg50
g517
sg120
g859
sg125
g873
sg130
g890
sg195
(dp966
g217
I1
ssg60
g582
sg70
g623
sg75
g662
sg80
g689
sg90
g744
sg135
g907
sg25
g360
sg65
g606
sg15
g284
sg140
g920
sg20
g316
sg145
g935
sg150
g944
sg185
(dp967
g217
I1
ssg105
g804
sg40
g458
sg190
(dp968
g217
I1
ssg95
g759
sg8
g239
sg100
g785
sg200
(dp969
g217
I1
ssg155
g959
sg205
(dp970
g217
I1
sssg165
(dp971
g100
g781
sg150
g939
sg155
g951
sg45
g490
sg35
g425
sg40
g461
sg110
g820
sg170
(dp972
g217
I1
ssg175
(dp973
g217
I1
ssg115
g831
sg180
(dp974
g217
I1
ssg120
g848
sg125
g866
sg185
(dp975
g217
I1
ssg135
g901
sg15
g282
sg20
g328
sg140
g911
sg160
g962
sg8
g225
sg145
g933
sg30
g392
sg50
g497
sg25
g356
sg60
g561
sg65
g614
sg70
g624
sg75
g670
sg80
g676
sg85
g719
sg90
g727
sg55
g531
sg95
g750
sg105
g792
sg200
(dp976
g217
I1
ssg205
(dp977
g217
I1
ssg190
(dp978
g217
I1
ssg195
(dp979
g217
I1
sssg170
(dp980
g95
g763
sg140
g912
sg150
g941
sg205
(dp981
g217
I1
ssg35
g424
sg50
g499
sg55
g551
sg165
g972
sg40
g439
sg105
g794
sg110
g825
sg175
(dp982
g217
I1
ssg115
g832
sg180
(dp983
g217
I1
ssg120
g860
sg20
g305
sg125
g867
sg130
g883
sg185
(dp984
g217
I1
ssg135
g898
sg8
g228
sg100
g774
sg15
g288
sg155
g953
sg160
g963
sg145
g926
sg30
g394
sg25
g339
sg195
(dp985
g217
I1
ssg60
g574
sg65
g595
sg70
g627
sg75
g650
sg80
g677
sg85
g708
sg90
g730
sg45
g471
sg200
(dp986
g217
I1
ssg190
(dp987
g217
I1
sssg175
(dp988
g100
g787
sg8
g229
sg150
g942
sg160
g964
sg35
g405
sg30
g371
sg165
g973
sg40
g440
sg105
g795
sg110
g811
sg170
g982
sg115
g833
sg180
(dp989
g217
I1
ssg120
g849
sg125
g868
sg130
g884
sg185
(dp990
g217
I1
ssg135
g902
sg15
g264
sg20
g306
sg140
g913
sg155
g957
sg50
g500
sg25
g340
sg60
g575
sg65
g596
sg70
g628
sg75
g651
sg145
g927
sg80
g678
sg85
g709
sg90
g731
sg55
g533
sg95
g765
sg45
g472
sg195
(dp991
g217
I1
ssg200
(dp992
g217
I1
ssg205
(dp993
g217
I1
ssg190
(dp994
g217
I1
sssg180
(dp995
g8
g231
sg150
g943
sg30
g373
sg35
g406
sg50
g502
sg25
g364
sg55
g529
sg105
g797
sg110
g813
sg170
g983
sg175
g989
sg115
g834
sg180
(dp996
g217
I1
ssg120
g850
sg125
g880
sg130
g894
sg135
g897
sg100
g790
sg15
g293
sg140
g914
sg20
g308
sg155
g954
sg160
g965
sg60
g583
sg65
g598
sg70
g630
sg75
g653
sg145
g928
sg80
g699
sg85
g711
sg90
g733
sg165
g974
sg40
g442
sg95
g768
sg45
g473
sg185
(dp997
g217
I1
ssg190
(dp998
g217
I1
ssg195
(dp999
g217
I1
ssg200
(dp1000
g217
I1
ssg205
(dp1001
g217
I1
sssg185
(dp1002
g30
g377
sg50
g505
sg35
g410
sg120
g853
sg190
(dp1003
g217
I1
ssg110
g824
sg170
g984
sg25
g344
sg20
g327
sg135
g900
sg125
g870
sg65
g602
sg70
g634
sg75
g657
sg80
g684
sg85
g718
sg90
g737
sg175
g990
sg200
(dp1004
g217
I1
ssg15
g269
sg165
g975
sg40
g445
sg150
g947
sg160
g967
sg95
g757
sg105
g800
sg145
g932
sg60
g579
sg195
(dp1005
g217
I1
ssg100
g776
sg140
g915
sg155
g956
sg45
g476
sg205
(dp1006
g217
I1
ssg180
g997
sg55
g544
ssg190
(dp1007
g30
g398
sg35
g428
sg15
g261
sg50
g514
sg120
g864
sg40
g463
sg110
g828
sg115
g842
sg155
g952
sg125
g876
sg130
g892
sg135
g905
sg60
g588
sg65
g590
sg70
g646
sg75
g674
sg145
g934
sg80
g694
sg85
g723
sg90
g746
sg100
g780
sg25
g359
sg160
g968
sg20
g332
sg55
g555
sg165
g978
sg185
g1003
sg105
g808
sg95
g751
sg170
g987
sg195
(dp1008
g217
I1
ssg8
g216
sg175
g994
sg200
(dp1009
g217
I1
ssg140
g924
sg150
g940
sg45
g494
sg205
(dp1010
g217
I1
ssg180
g998
ssg195
(dp1011
g200
(dp1012
g217
I1
ssg95
g767
sg8
g254
sg100
g778
sg155
g955
sg160
g966
sg30
g395
sg35
g429
sg15
g271
sg50
g525
sg55
g552
sg40
g464
sg105
g809
sg110
g826
sg170
g985
sg175
g991
sg115
g839
sg180
g999
sg120
g861
sg125
g879
sg130
g886
sg185
g1005
sg135
g908
sg140
g921
sg20
g330
sg150
g948
sg45
g495
sg80
g698
sg85
g724
sg25
g363
sg60
g585
sg65
g617
sg70
g644
sg75
g672
sg145
g936
sg90
g742
sg165
g979
sg190
g1008
sg205
(dp1013
g217
I1
sssg200
(dp1014
g95
g766
sg100
g788
sg8
g255
sg155
g958
sg160
g969
sg30
g396
sg35
g430
sg15
g289
sg50
g513
sg55
g554
sg110
g827
sg170
g986
sg175
g992
sg115
g844
sg180
g1000
sg120
g862
sg125
g874
sg130
g887
sg185
g1004
sg135
g903
sg20
g296
sg140
g922
sg150
g945
sg205
(dp1015
g217
I1
ssg145
g929
sg25
g358
sg60
g586
sg65
g616
sg70
g619
sg75
g673
sg80
g693
sg85
g721
sg90
g747
sg40
g462
sg165
g976
sg45
g493
sg105
g807
sg190
g1009
sg195
g1012
ssg205
(dp1016
g95
g770
sg100
g789
sg8
g221
sg150
g949
sg155
g960
sg30
g397
sg50
g526
sg35
g431
sg165
g977
sg110
g829
sg170
g981
sg175
g993
sg115
g846
sg180
g1001
sg120
g863
sg125
g881
sg130
g895
sg185
g1006
sg15
g294
sg140
g923
sg20
g331
sg45
g480
sg55
g557
sg60
g587
sg65
g607
sg70
g645
sg75
g663
sg145
g937
sg80
g700
sg85
g722
sg90
g748
sg160
g970
sg40
g435
sg190
g1010
sg135
g909
sg25
g365
sg105
g805
sg200
g1015
sg195
g1013
sssS'graph'
p1017
(dp1018
sS'adjlist_dict_factory'
p1019
g211
sS'adj'
p1020
g214
sb.