ccopy_reg
_reconstructor
p0
(cnetworkx.classes.graph
Graph
p1
c__builtin__
object
p2
Ntp3
Rp4
(dp5
S'node'
p6
(dp7
(ipubmed_timeline
Term
p8
(dp9
S'term'
p10
S'Penicillins'
p11
sS'mentions_in_year'
p12
(dp13
I1945
I23
sI1946
I124
sI1947
I125
sI1948
I108
sI1949
I121
sI1950
I165
sI1951
I168
sI1952
I127
sI1953
I111
sI1954
I85
sI1955
I65
sI1956
I51
sI1957
I51
sI1958
I28
sI1959
I33
sI1960
I19
sI1961
I28
sI1962
I26
sI1963
I53
sI1964
I88
sI1965
I49
sI1966
I30
sI1967
I45
sI1968
I36
sI1969
I45
sI1970
I42
sI1971
I53
sI1972
I37
sI1973
I57
sI1974
I31
sI1975
I22
sI1976
I42
sI1977
I18
sI1978
I19
sI1979
I23
sI1980
I15
sI1981
I22
sI1982
I20
sI1983
I17
sI1984
I25
sI1985
I21
sI1986
I8
sI1987
I20
sI1988
I18
sI1989
I11
sI1990
I20
sI1991
I16
sI1992
I13
sI1993
I13
sI1994
I13
sI1995
I17
sI1996
I20
sI1997
I20
sI1998
I22
sI1999
I24
sI2000
I19
sI2001
I19
sI2002
I27
sI2003
I21
sI2004
I17
sI2005
I12
sI2006
I26
sI2007
I14
sI2008
I16
sI2009
I13
sI2010
I17
sI2011
I20
sI2012
I19
sI2013
I20
sI2014
I15
sI2015
I13
ssb(dp14
s(ipubmed_timeline
Term
p15
(dp16
g10
S'isolation & purification'
p17
sg12
(dp18
I1965
I3
sI1966
I1
sI1967
I10
sI1968
I20
sI1969
I39
sI1970
I36
sI1971
I37
sI1972
I36
sI1973
I24
sI1974
I37
sI1975
I64
sI1976
I15
sI1977
I13
sI1978
I22
sI1979
I11
sI1980
I10
sI1981
I24
sI1982
I20
sI1983
I24
sI1984
I21
sI1985
I35
sI1986
I28
sI1987
I20
sI1988
I23
sI1989
I32
sI1990
I22
sI1991
I45
sI1992
I17
sI1993
I20
sI1994
I31
sI1995
I28
sI1996
I41
sI1997
I27
sI1998
I27
sI1999
I45
sI2000
I42
sI2001
I37
sI2002
I46
sI2003
I41
sI2004
I36
sI2005
I37
sI2006
I73
sI2007
I62
sI2008
I80
sI2009
I69
sI2010
I86
sI2011
I75
sI2012
I97
sI2013
I106
sI2014
I87
sI2015
I103
ssb(dp19
s(ipubmed_timeline
Term
p20
(dp21
g10
VSYPHILIS
p22
sg12
(dp23
I1942
I2
sI1945
I499
sI1946
I1265
sI1947
I1315
sI1948
I1177
sI1949
I1086
sI1950
I1507
sI1951
I1580
sI1952
I1393
sI1953
I1202
sI1954
I1017
sI1955
I962
sI1956
I855
sI1957
I712
sI1958
I671
sI1959
I460
sI1960
I499
sI1961
I439
sI1962
I439
sI1963
I675
sI1964
I935
sI1965
I492
sI1966
I330
sI1967
I363
sI1968
I317
sI1969
I427
sI1970
I375
sI1971
I431
sI1972
I422
sI1973
I417
sI1974
I333
sI1975
I338
sI1976
I401
sI1977
I309
sI1978
I286
sI1979
I300
sI1980
I319
sI1981
I304
sI1982
I329
sI1983
I320
sI1984
I326
sI1985
I320
sI1986
I306
sI1987
I289
sI1988
I305
sI1989
I326
sI1990
I367
sI1991
I311
sI1992
I329
sI1993
I288
sI1994
I282
sI1995
I257
sI1996
I217
sI1997
I190
sI1998
I242
sI1999
I275
sI2000
I235
sI2001
I278
sI2002
I266
sI2003
I269
sI2004
I310
sI2005
I309
sI2006
I354
sI2007
I335
sI2008
I354
sI2009
I390
sI2010
I413
sI2011
I453
sI2012
I466
sI2013
I628
sI2014
I583
sI2015
I546
ssb(dp24
s(ipubmed_timeline
Term
p25
(dp26
g10
S'Animals'
p27
sg12
(dp28
I1945
I3
sI1946
I17
sI1947
I15
sI1948
I15
sI1949
I6
sI1950
I27
sI1951
I19
sI1952
I12
sI1953
I13
sI1954
I17
sI1955
I11
sI1956
I16
sI1957
I11
sI1958
I7
sI1959
I7
sI1960
I5
sI1961
I7
sI1962
I3
sI1963
I18
sI1964
I23
sI1965
I22
sI1966
I25
sI1967
I35
sI1968
I40
sI1969
I41
sI1970
I28
sI1971
I38
sI1972
I49
sI1973
I29
sI1974
I28
sI1975
I26
sI1976
I26
sI1977
I35
sI1978
I19
sI1979
I30
sI1980
I33
sI1981
I34
sI1982
I31
sI1983
I35
sI1984
I34
sI1985
I44
sI1986
I26
sI1987
I28
sI1988
I29
sI1989
I22
sI1990
I21
sI1991
I37
sI1992
I30
sI1993
I22
sI1994
I18
sI1995
I17
sI1996
I12
sI1997
I15
sI1998
I15
sI1999
I19
sI2000
I17
sI2001
I21
sI2002
I12
sI2003
I13
sI2004
I22
sI2005
I21
sI2006
I20
sI2007
I16
sI2008
I19
sI2009
I14
sI2010
I16
sI2011
I13
sI2012
I9
sI2013
I22
sI2014
I11
sI2015
I16
ssb(dp29
s(ipubmed_timeline
Term
p30
(dp31
g10
S'Treponema pallidum'
p32
sg12
(dp33
I1946
I4
sI1947
I3
sI1948
I6
sI1949
I4
sI1950
I9
sI1951
I12
sI1952
I8
sI1953
I19
sI1954
I19
sI1955
I22
sI1956
I22
sI1957
I27
sI1958
I13
sI1959
I14
sI1960
I5
sI1961
I11
sI1962
I5
sI1963
I11
sI1964
I20
sI1965
I12
sI1966
I12
sI1967
I41
sI1968
I42
sI1969
I52
sI1970
I42
sI1971
I42
sI1972
I61
sI1973
I48
sI1974
I53
sI1975
I60
sI1976
I50
sI1977
I46
sI1978
I38
sI1979
I45
sI1980
I50
sI1981
I40
sI1982
I53
sI1983
I62
sI1984
I46
sI1985
I57
sI1986
I42
sI1987
I31
sI1988
I38
sI1989
I42
sI1990
I41
sI1991
I39
sI1992
I35
sI1993
I29
sI1994
I29
sI1995
I29
sI1996
I26
sI1997
I27
sI1998
I34
sI1999
I32
sI2000
I47
sI2001
I31
sI2002
I36
sI2003
I29
sI2004
I45
sI2005
I46
sI2006
I70
sI2007
I57
sI2008
I73
sI2009
I68
sI2010
I77
sI2011
I84
sI2012
I90
sI2013
I141
sI2014
I122
sI2015
I114
ssb(dp34
s(ipubmed_timeline
Term
p35
(dp36
g10
VHISTORY
p37
sg12
(dp38
I1945
I5
sI1946
I17
sI1947
I24
sI1948
I14
sI1951
I8
sI1952
I18
sI1953
I12
sI1954
I8
sI1955
I22
sI1956
I26
sI1957
I8
sI1958
I12
sI1960
I12
sI1961
I8
sI1962
I2
sI1963
I6
sI1964
I20
sI1965
I10
sI1966
I20
sI1967
I25
sI1968
I22
sI1969
I62
sI1970
I36
sI1971
I68
sI1972
I75
sI1973
I78
sI1974
I51
sI1975
I47
sI1976
I35
sI1977
I46
sI1978
I49
sI1979
I40
sI1980
I38
sI1981
I38
sI1982
I49
sI1983
I44
sI1984
I39
sI1985
I41
sI1986
I52
sI1987
I26
sI1988
I51
sI1989
I40
sI1990
I60
sI1991
I56
sI1992
I61
sI1993
I79
sI1994
I88
sI1995
I121
sI1996
I83
sI1997
I44
sI1998
I64
sI1999
I105
sI2000
I124
sI2001
I171
sI2002
I84
sI2003
I129
sI2004
I97
sI2005
I72
sI2006
I143
sI2007
I104
sI2008
I157
sI2009
I183
sI2010
I192
sI2011
I177
sI2012
I108
sI2013
I137
sI2014
I127
sI2015
I129
ssb(dp39
s(ipubmed_timeline
Term
p40
(dp41
g10
S'therapy'
p42
sg12
(dp43
I1945
I214
sI1946
I604
sI1947
I506
sI1948
I513
sI1949
I299
sI1950
I10
sI1951
I208
sI1952
I332
sI1953
I272
sI1954
I228
sI1955
I220
sI1956
I134
sI1957
I130
sI1958
I124
sI1959
I140
sI1960
I126
sI1961
I177
sI1962
I90
sI1965
I3
sI1966
I5
sI1967
I19
sI1968
I38
sI1969
I43
sI1970
I28
sI1971
I28
sI1972
I22
sI1973
I30
sI1974
I45
sI1975
I40
sI1976
I24
sI1977
I29
sI1978
I15
sI1979
I13
sI1980
I35
sI1981
I14
sI1982
I23
sI1983
I22
sI1984
I18
sI1985
I20
sI1986
I23
sI1987
I6
sI1988
I25
sI1989
I25
sI1990
I56
sI1991
I34
sI1992
I40
sI1993
I52
sI1994
I54
sI1995
I44
sI1996
I20
sI1997
I41
sI1998
I73
sI1999
I65
sI2000
I32
sI2001
I51
sI2002
I59
sI2003
I58
sI2004
I66
sI2005
I44
sI2006
I67
sI2007
I58
sI2008
I42
sI2009
I39
sI2010
I90
sI2011
I49
sI2012
I43
sI2013
I90
sI2014
I70
sI2015
I45
ssb(dp44
s(ipubmed_timeline
Term
p45
(dp46
g10
S'adverse effects'
p47
sg12
(dp48
I1948
I1
sI1953
I3
sI1954
I10
sI1955
I9
sI1956
I4
sI1957
I4
sI1958
I6
sI1959
I3
sI1962
I1
sI1963
I6
sI1964
I9
sI1965
I8
sI1966
I16
sI1967
I25
sI1968
I26
sI1969
I28
sI1970
I19
sI1971
I18
sI1972
I26
sI1973
I29
sI1974
I32
sI1975
I28
sI1976
I31
sI1977
I21
sI1978
I21
sI1979
I17
sI1980
I18
sI1981
I14
sI1982
I12
sI1983
I9
sI1984
I12
sI1985
I41
sI1986
I12
sI1987
I9
sI1988
I11
sI1989
I15
sI1990
I15
sI1991
I14
sI1992
I4
sI1993
I19
sI1994
I20
sI1995
I21
sI1996
I22
sI1997
I9
sI1998
I26
sI1999
I7
sI2000
I27
sI2001
I12
sI2002
I30
sI2003
I24
sI2004
I12
sI2005
I15
sI2006
I30
sI2007
I17
sI2008
I22
sI2009
I32
sI2010
I14
sI2011
I29
sI2012
I24
sI2013
I27
sI2014
I25
sI2015
I37
ssb(dp49
s(ipubmed_timeline
Term
p50
(dp51
g10
S'therapeutic use'
p52
sg12
(dp53
I1946
I1
sI1948
I14
sI1949
I2
sI1950
I8
sI1951
I176
sI1952
I310
sI1953
I307
sI1954
I239
sI1955
I173
sI1956
I112
sI1957
I133
sI1958
I81
sI1959
I26
sI1963
I1
sI1964
I5
sI1965
I79
sI1966
I98
sI1967
I120
sI1968
I126
sI1969
I148
sI1970
I113
sI1971
I191
sI1972
I135
sI1973
I190
sI1974
I141
sI1975
I153
sI1976
I193
sI1977
I76
sI1978
I58
sI1979
I86
sI1980
I59
sI1981
I65
sI1982
I64
sI1983
I86
sI1984
I86
sI1985
I91
sI1986
I62
sI1987
I75
sI1988
I85
sI1989
I68
sI1990
I81
sI1991
I64
sI1992
I56
sI1993
I50
sI1994
I57
sI1995
I98
sI1996
I75
sI1997
I70
sI1998
I74
sI1999
I84
sI2000
I83
sI2001
I69
sI2002
I98
sI2003
I79
sI2004
I121
sI2005
I120
sI2006
I144
sI2007
I103
sI2008
I135
sI2009
I170
sI2010
I143
sI2011
I141
sI2012
I165
sI2013
I212
sI2014
I151
sI2015
I169
ssb(dp54
s(ipubmed_timeline
Term
p55
(dp56
g10
S'pathology'
p57
sg12
(dp58
I1945
I2
sI1946
I16
sI1947
I8
sI1948
I21
sI1951
I2
sI1952
I24
sI1953
I30
sI1954
I10
sI1955
I34
sI1956
I14
sI1957
I12
sI1958
I18
sI1959
I28
sI1960
I42
sI1961
I22
sI1962
I26
sI1965
I18
sI1966
I28
sI1967
I59
sI1968
I89
sI1969
I117
sI1970
I113
sI1971
I145
sI1972
I154
sI1973
I108
sI1974
I167
sI1975
I132
sI1976
I116
sI1977
I81
sI1978
I131
sI1979
I156
sI1980
I156
sI1981
I135
sI1982
I127
sI1983
I121
sI1984
I134
sI1985
I141
sI1986
I164
sI1987
I130
sI1988
I134
sI1989
I120
sI1990
I148
sI1991
I117
sI1992
I108
sI1993
I136
sI1994
I113
sI1995
I155
sI1996
I116
sI1997
I116
sI1998
I104
sI1999
I92
sI2000
I104
sI2001
I110
sI2002
I78
sI2003
I85
sI2004
I113
sI2005
I143
sI2006
I132
sI2007
I107
sI2008
I151
sI2009
I160
sI2010
I165
sI2011
I253
sI2012
I153
sI2013
I197
sI2014
I150
sI2015
I173
ssb(dp59
s(ipubmed_timeline
Term
p60
(dp61
g10
S'genetics'
p62
sg12
(dp63
I1948
I1
sI1952
I2
sI1953
I1
sI1957
I1
sI1960
I4
sI1965
I8
sI1967
I5
sI1968
I5
sI1969
I10
sI1970
I6
sI1971
I12
sI1972
I10
sI1973
I4
sI1974
I8
sI1975
I1
sI1976
I6
sI1978
I9
sI1979
I7
sI1980
I5
sI1981
I13
sI1982
I12
sI1983
I12
sI1984
I7
sI1985
I13
sI1986
I11
sI1987
I3
sI1988
I17
sI1989
I19
sI1990
I13
sI1991
I13
sI1992
I13
sI1993
I29
sI1994
I22
sI1995
I17
sI1996
I56
sI1997
I51
sI1998
I60
sI1999
I40
sI2000
I18
sI2001
I46
sI2002
I22
sI2003
I56
sI2004
I48
sI2005
I31
sI2006
I51
sI2007
I54
sI2008
I67
sI2009
I69
sI2010
I51
sI2011
I70
sI2012
I98
sI2013
I83
sI2014
I82
sI2015
I79
ssb(dp64
s(ipubmed_timeline
Term
p65
(dp66
g10
S'microbiology'
p67
sg12
(dp68
I1948
I1
sI1953
I2
sI1965
I5
sI1966
I7
sI1967
I16
sI1968
I38
sI1969
I68
sI1970
I39
sI1971
I41
sI1972
I62
sI1973
I21
sI1974
I40
sI1975
I57
sI1976
I20
sI1977
I23
sI1978
I26
sI1979
I36
sI1980
I41
sI1981
I33
sI1982
I32
sI1983
I44
sI1984
I31
sI1985
I41
sI1986
I37
sI1987
I29
sI1988
I32
sI1989
I33
sI1990
I46
sI1991
I67
sI1992
I70
sI1993
I84
sI1994
I80
sI1995
I82
sI1996
I57
sI1997
I63
sI1998
I43
sI1999
I70
sI2000
I74
sI2001
I76
sI2002
I69
sI2003
I69
sI2004
I71
sI2005
I121
sI2006
I164
sI2007
I122
sI2008
I170
sI2009
I161
sI2010
I124
sI2011
I150
sI2012
I180
sI2013
I221
sI2014
I194
sI2015
I188
ssb(dp69
s(ipubmed_timeline
Term
p70
(dp71
g10
VINMUNOLOGY
p72
sg12
(dp73
I1945
I1
sI1948
I8
sI1949
I1
sI1952
I2
sI1953
I18
sI1954
I20
sI1955
I28
sI1956
I30
sI1957
I38
sI1958
I38
sI1959
I34
sI1960
I18
sI1961
I38
sI1962
I20
sI1965
I25
sI1966
I79
sI1967
I89
sI1968
I115
sI1969
I150
sI1970
I119
sI1971
I189
sI1972
I211
sI1973
I171
sI1974
I234
sI1975
I223
sI1976
I188
sI1977
I145
sI1978
I133
sI1979
I141
sI1980
I189
sI1981
I132
sI1982
I211
sI1983
I224
sI1984
I247
sI1985
I307
sI1986
I231
sI1987
I189
sI1988
I224
sI1989
I230
sI1990
I229
sI1991
I251
sI1992
I225
sI1993
I190
sI1994
I197
sI1995
I169
sI1996
I155
sI1997
I148
sI1998
I184
sI1999
I157
sI2000
I105
sI2001
I110
sI2002
I88
sI2003
I108
sI2004
I107
sI2005
I133
sI2006
I97
sI2007
I130
sI2008
I132
sI2009
I142
sI2010
I112
sI2011
I147
sI2012
I128
sI2013
I168
sI2014
I152
sI2015
I138
ssb(dp74
s(ipubmed_timeline
Term
p75
(dp76
g10
S'Risk Factors'
p77
sg12
(dp78
I1978
I1
sI1986
I1
sI1987
I6
sI1988
I18
sI1989
I26
sI1990
I41
sI1991
I51
sI1992
I60
sI1993
I56
sI1994
I77
sI1995
I54
sI1996
I60
sI1997
I46
sI1998
I44
sI1999
I45
sI2000
I46
sI2001
I66
sI2002
I54
sI2003
I64
sI2004
I48
sI2005
I71
sI2006
I67
sI2007
I55
sI2008
I61
sI2009
I69
sI2010
I84
sI2011
I59
sI2012
I85
sI2013
I80
sI2014
I107
sI2015
I78
ssb(dp79
s(ipubmed_timeline
Term
p80
(dp81
g10
S'Sexually Transmitted Diseases'
p82
sg12
(dp83
I1945
I4
sI1946
I13
sI1947
I14
sI1948
I8
sI1949
I34
sI1950
I22
sI1951
I6
sI1952
I7
sI1953
I3
sI1954
I8
sI1955
I6
sI1956
I1
sI1957
I4
sI1958
I9
sI1959
I2
sI1960
I10
sI1961
I2
sI1962
I3
sI1963
I8
sI1964
I23
sI1965
I10
sI1966
I12
sI1967
I11
sI1968
I16
sI1969
I21
sI1970
I22
sI1971
I29
sI1972
I30
sI1973
I34
sI1974
I33
sI1975
I27
sI1976
I32
sI1977
I20
sI1978
I21
sI1979
I25
sI1980
I38
sI1981
I29
sI1982
I38
sI1983
I27
sI1984
I37
sI1985
I41
sI1986
I40
sI1987
I29
sI1988
I43
sI1989
I56
sI1990
I85
sI1991
I65
sI1992
I88
sI1993
I91
sI1994
I106
sI1995
I85
sI1996
I88
sI1997
I82
sI1998
I79
sI1999
I73
sI2000
I57
sI2001
I66
sI2002
I98
sI2003
I79
sI2004
I51
sI2005
I83
sI2006
I74
sI2007
I81
sI2008
I81
sI2009
I88
sI2010
I73
sI2011
I73
sI2012
I83
sI2013
I90
sI2014
I78
sI2015
I61
ssb(dp84
s(ipubmed_timeline
Term
p85
(dp86
g10
VDIAGNOSIS
p87
sg12
(dp88
I1945
I20
sI1946
I40
sI1947
I50
sI1948
I93
sI1949
I15
sI1950
I2
sI1951
I171
sI1952
I423
sI1953
I355
sI1954
I316
sI1955
I317
sI1956
I336
sI1957
I231
sI1958
I246
sI1959
I128
sI1960
I170
sI1961
I126
sI1962
I88
sI1963
I14
sI1964
I44
sI1965
I81
sI1966
I154
sI1967
I199
sI1968
I254
sI1969
I266
sI1970
I293
sI1971
I404
sI1972
I307
sI1973
I341
sI1974
I289
sI1975
I259
sI1976
I266
sI1977
I194
sI1978
I202
sI1979
I295
sI1980
I217
sI1981
I292
sI1982
I234
sI1983
I314
sI1984
I303
sI1985
I291
sI1986
I249
sI1987
I220
sI1988
I162
sI1989
I207
sI1990
I276
sI1991
I224
sI1992
I259
sI1993
I314
sI1994
I271
sI1995
I230
sI1996
I247
sI1997
I211
sI1998
I280
sI1999
I273
sI2000
I282
sI2001
I255
sI2002
I261
sI2003
I307
sI2004
I330
sI2005
I392
sI2006
I451
sI2007
I355
sI2008
I427
sI2009
I505
sI2010
I553
sI2011
I537
sI2012
I577
sI2013
I625
sI2014
I577
sI2015
I535
ssb(dp89
s(ipubmed_timeline
Term
p90
(dp91
g10
S'physiopathology'
p92
sg12
(dp93
I1966
I27
sI1967
I9
sI1968
I34
sI1969
I13
sI1970
I13
sI1971
I31
sI1972
I24
sI1973
I10
sI1974
I73
sI1975
I17
sI1976
I6
sI1977
I15
sI1978
I7
sI1979
I24
sI1980
I11
sI1981
I14
sI1982
I6
sI1983
I18
sI1984
I17
sI1985
I31
sI1986
I19
sI1987
I17
sI1988
I51
sI1989
I13
sI1990
I27
sI1991
I37
sI1992
I33
sI1993
I35
sI1994
I29
sI1995
I21
sI1996
I31
sI1997
I19
sI1998
I15
sI1999
I41
sI2000
I24
sI2001
I35
sI2002
I27
sI2003
I31
sI2004
I30
sI2005
I26
sI2006
I27
sI2007
I23
sI2008
I24
sI2009
I26
sI2010
I29
sI2011
I38
sI2012
I26
sI2013
I26
sI2014
I28
sI2015
I29
ssb(dp94
s(ipubmed_timeline
Term
p95
(dp96
g10
VBLOOD
p97
sg12
(dp98
I1945
I5
sI1946
I9
sI1947
I7
sI1948
I12
sI1949
I4
sI1950
I6
sI1951
I18
sI1952
I18
sI1953
I9
sI1954
I4
sI1955
I11
sI1956
I8
sI1957
I8
sI1958
I4
sI1959
I8
sI1960
I10
sI1961
I16
sI1962
I42
sI1963
I4
sI1964
I9
sI1965
I9
sI1966
I20
sI1967
I37
sI1968
I22
sI1969
I61
sI1970
I42
sI1971
I77
sI1972
I41
sI1973
I34
sI1974
I52
sI1975
I26
sI1976
I23
sI1977
I9
sI1978
I7
sI1979
I31
sI1980
I18
sI1981
I22
sI1982
I26
sI1983
I20
sI1984
I16
sI1985
I25
sI1986
I18
sI1987
I14
sI1988
I25
sI1989
I44
sI1990
I41
sI1991
I60
sI1992
I95
sI1993
I77
sI1994
I164
sI1995
I86
sI1996
I65
sI1997
I60
sI1998
I98
sI1999
I71
sI2000
I117
sI2001
I118
sI2002
I73
sI2003
I85
sI2004
I102
sI2005
I88
sI2006
I109
sI2007
I128
sI2008
I109
sI2009
I140
sI2010
I125
sI2011
I163
sI2012
I178
sI2013
I165
sI2014
I177
sI2015
I143
ssb(dp99
s(ipubmed_timeline
Term
p100
(dp101
g10
VADMINISTRATION
p102
sg12
(dp103
I1946
I5
sI1948
I1
sI1949
I1
sI1951
I2
sI1952
I1
sI1954
I1
sI1965
I5
sI1966
I12
sI1967
I13
sI1968
I17
sI1969
I26
sI1970
I25
sI1971
I32
sI1972
I30
sI1973
I43
sI1974
I32
sI1975
I28
sI1976
I50
sI1977
I14
sI1978
I12
sI1979
I33
sI1980
I38
sI1981
I37
sI1982
I24
sI1983
I38
sI1984
I35
sI1985
I33
sI1986
I12
sI1987
I29
sI1988
I28
sI1989
I21
sI1990
I29
sI1991
I9
sI1992
I17
sI1993
I13
sI1994
I20
sI1995
I17
sI1996
I17
sI1997
I29
sI1998
I23
sI1999
I40
sI2000
I22
sI2001
I15
sI2002
I25
sI2003
I27
sI2004
I36
sI2005
I37
sI2006
I37
sI2007
I39
sI2008
I39
sI2009
I46
sI2010
I38
sI2011
I44
sI2012
I80
sI2013
I56
sI2014
I50
sI2015
I67
ssb(dp104
s(ipubmed_timeline
Term
p105
(dp106
g10
S'Age Factors'
p107
sg12
(dp108
I1960
I2
sI1966
I2
sI1967
I12
sI1968
I11
sI1969
I26
sI1970
I27
sI1971
I24
sI1972
I26
sI1973
I26
sI1974
I20
sI1975
I18
sI1976
I8
sI1977
I6
sI1978
I5
sI1979
I8
sI1980
I10
sI1981
I8
sI1982
I3
sI1983
I14
sI1984
I8
sI1985
I11
sI1986
I5
sI1987
I6
sI1988
I15
sI1989
I11
sI1990
I28
sI1991
I16
sI1992
I30
sI1993
I20
sI1994
I21
sI1995
I11
sI1996
I9
sI1997
I14
sI1998
I7
sI1999
I9
sI2000
I7
sI2001
I10
sI2002
I14
sI2003
I11
sI2004
I8
sI2005
I5
sI2006
I7
sI2007
I9
sI2008
I10
sI2009
I7
sI2010
I13
sI2011
I12
sI2012
I14
sI2013
I8
sI2014
I20
sI2015
I7
ssb(dp109
s(ipubmed_timeline
Term
p110
(dp111
g10
S'Diagnosis, Differential'
p112
sg12
(dp113
I1947
I1
sI1948
I3
sI1949
I2
sI1950
I4
sI1951
I2
sI1952
I6
sI1953
I10
sI1954
I16
sI1955
I7
sI1956
I16
sI1957
I4
sI1958
I8
sI1959
I2
sI1960
I2
sI1962
I2
sI1963
I28
sI1964
I58
sI1965
I22
sI1966
I30
sI1967
I36
sI1968
I46
sI1969
I37
sI1970
I31
sI1971
I48
sI1972
I42
sI1973
I35
sI1974
I32
sI1975
I30
sI1976
I25
sI1977
I23
sI1978
I16
sI1979
I35
sI1980
I32
sI1981
I34
sI1982
I33
sI1983
I24
sI1984
I33
sI1985
I26
sI1986
I24
sI1987
I28
sI1988
I25
sI1989
I24
sI1990
I23
sI1991
I32
sI1992
I25
sI1993
I35
sI1994
I26
sI1995
I32
sI1996
I30
sI1997
I14
sI1998
I29
sI1999
I27
sI2000
I31
sI2001
I29
sI2002
I35
sI2003
I31
sI2004
I52
sI2005
I39
sI2006
I48
sI2007
I27
sI2008
I48
sI2009
I42
sI2010
I48
sI2011
I49
sI2012
I51
sI2013
I64
sI2014
I48
sI2015
I51
ssb(dp114
s(ipubmed_timeline
Term
p115
(dp116
g10
VAGE GROUPS
p117
sg12
(dp118
I1945
I8
sI1946
I15
sI1947
I31
sI1948
I15
sI1949
I14
sI1950
I22
sI1951
I29
sI1952
I34
sI1953
I36
sI1954
I26
sI1955
I10
sI1956
I29
sI1957
I33
sI1958
I18
sI1959
I17
sI1960
I20
sI1961
I11
sI1962
I31
sI1963
I74
sI1964
I138
sI1965
I253
sI1966
I380
sI1967
I487
sI1968
I439
sI1969
I492
sI1970
I510
sI1971
I503
sI1972
I495
sI1973
I404
sI1974
I448
sI1975
I392
sI1976
I397
sI1977
I376
sI1978
I298
sI1979
I353
sI1980
I390
sI1981
I371
sI1982
I408
sI1983
I363
sI1984
I379
sI1985
I398
sI1986
I303
sI1987
I330
sI1988
I396
sI1989
I382
sI1990
I491
sI1991
I423
sI1992
I442
sI1993
I494
sI1994
I486
sI1995
I427
sI1996
I349
sI1997
I363
sI1998
I379
sI1999
I441
sI2000
I398
sI2001
I441
sI2002
I458
sI2003
I491
sI2004
I427
sI2005
I542
sI2006
I558
sI2007
I562
sI2008
I684
sI2009
I809
sI2010
I800
sI2011
I860
sI2012
I980
sI2013
I940
sI2014
I990
sI2015
I848
ssb(dp119
s(ipubmed_timeline
Term
p120
(dp121
g10
S'HIV Infections'
p122
sg12
(dp123
I1986
I1
sI1988
I4
sI1989
I14
sI1990
I45
sI1991
I57
sI1992
I74
sI1993
I76
sI1994
I99
sI1995
I70
sI1996
I68
sI1997
I63
sI1998
I71
sI1999
I65
sI2000
I71
sI2001
I91
sI2002
I92
sI2003
I100
sI2004
I93
sI2005
I124
sI2006
I115
sI2007
I110
sI2008
I140
sI2009
I162
sI2010
I137
sI2011
I158
sI2012
I180
sI2013
I194
sI2014
I205
sI2015
I201
ssb(dp124
s(ipubmed_timeline
Term
p125
(dp126
g10
S'complications'
p127
sg12
(dp128
I1945
I3
sI1946
I21
sI1947
I26
sI1948
I27
sI1949
I20
sI1950
I2
sI1951
I32
sI1952
I73
sI1953
I149
sI1954
I105
sI1955
I126
sI1956
I137
sI1957
I75
sI1958
I79
sI1959
I84
sI1960
I86
sI1961
I64
sI1962
I36
sI1965
I53
sI1966
I201
sI1967
I232
sI1968
I258
sI1969
I332
sI1970
I299
sI1971
I374
sI1972
I279
sI1973
I358
sI1974
I280
sI1975
I292
sI1976
I202
sI1977
I206
sI1978
I213
sI1979
I145
sI1980
I129
sI1981
I122
sI1982
I169
sI1983
I199
sI1984
I137
sI1985
I132
sI1986
I153
sI1987
I134
sI1988
I199
sI1989
I253
sI1990
I277
sI1991
I259
sI1992
I272
sI1993
I262
sI1994
I263
sI1995
I186
sI1996
I212
sI1997
I162
sI1998
I157
sI1999
I201
sI2000
I198
sI2001
I202
sI2002
I181
sI2003
I178
sI2004
I136
sI2005
I244
sI2006
I193
sI2007
I210
sI2008
I229
sI2009
I288
sI2010
I266
sI2011
I279
sI2012
I215
sI2013
I237
sI2014
I253
sI2015
I238
ssb(dp129
s(ipubmed_timeline
Term
p130
(dp131
g10
VDISEASE
p132
sg12
(dp133
I1945
I18
sI1946
I37
sI1947
I17
sI1948
I18
sI1949
I17
sI1950
I5
sI1951
I50
sI1952
I92
sI1953
I119
sI1954
I90
sI1955
I86
sI1956
I80
sI1957
I62
sI1958
I50
sI1959
I31
sI1960
I51
sI1961
I55
sI1962
I20
sI1963
I3
sI1964
I11
sI1965
I46
sI1966
I120
sI1967
I89
sI1968
I94
sI1969
I190
sI1970
I184
sI1971
I148
sI1972
I147
sI1973
I159
sI1974
I164
sI1975
I153
sI1976
I103
sI1977
I96
sI1978
I80
sI1979
I83
sI1980
I139
sI1981
I96
sI1982
I124
sI1983
I79
sI1984
I92
sI1985
I125
sI1986
I83
sI1987
I117
sI1988
I162
sI1989
I195
sI1990
I320
sI1991
I381
sI1992
I346
sI1993
I379
sI1994
I386
sI1995
I338
sI1996
I324
sI1997
I290
sI1998
I357
sI1999
I397
sI2000
I417
sI2001
I561
sI2002
I538
sI2003
I582
sI2004
I451
sI2005
I608
sI2006
I588
sI2007
I621
sI2008
I659
sI2009
I727
sI2010
I695
sI2011
I713
sI2012
I909
sI2013
I960
sI2014
I927
sI2015
I721
ssb(dp134
s(ipubmed_timeline
Term
p135
(dp136
g10
VMETHODS
p137
sg12
(dp138
I1945
I14
sI1946
I29
sI1947
I5
sI1948
I16
sI1949
I6
sI1950
I1
sI1951
I24
sI1952
I22
sI1953
I19
sI1954
I12
sI1955
I21
sI1956
I20
sI1957
I9
sI1958
I13
sI1959
I10
sI1960
I14
sI1961
I10
sI1962
I9
sI1965
I2
sI1966
I20
sI1967
I41
sI1968
I83
sI1969
I94
sI1970
I132
sI1971
I142
sI1972
I119
sI1973
I70
sI1974
I140
sI1975
I137
sI1976
I131
sI1977
I122
sI1978
I132
sI1979
I127
sI1980
I120
sI1981
I117
sI1982
I132
sI1983
I143
sI1984
I144
sI1985
I164
sI1986
I131
sI1987
I115
sI1988
I132
sI1989
I130
sI1990
I167
sI1991
I151
sI1992
I136
sI1993
I119
sI1994
I140
sI1995
I170
sI1996
I127
sI1997
I96
sI1998
I153
sI1999
I154
sI2000
I165
sI2001
I205
sI2002
I194
sI2003
I218
sI2004
I197
sI2005
I257
sI2006
I299
sI2007
I281
sI2008
I335
sI2009
I356
sI2010
I335
sI2011
I442
sI2012
I477
sI2013
I492
sI2014
I456
sI2015
I454
ssb(dp139
s(ipubmed_timeline
Term
p140
(dp141
g10
S'Syphilis Serodiagnosis'
p142
sg12
(dp143
I1942
I1
sI1945
I29
sI1946
I103
sI1947
I95
sI1948
I87
sI1949
I49
sI1950
I36
sI1951
I40
sI1952
I33
sI1953
I33
sI1954
I34
sI1955
I29
sI1956
I26
sI1957
I18
sI1958
I23
sI1959
I19
sI1960
I9
sI1961
I12
sI1962
I50
sI1963
I114
sI1964
I156
sI1965
I150
sI1966
I109
sI1967
I136
sI1968
I182
sI1969
I153
sI1970
I148
sI1971
I167
sI1972
I141
sI1973
I115
sI1974
I121
sI1975
I89
sI1976
I91
sI1977
I81
sI1978
I96
sI1979
I91
sI1980
I75
sI1981
I78
sI1982
I108
sI1983
I72
sI1984
I78
sI1985
I69
sI1986
I46
sI1987
I62
sI1988
I63
sI1989
I94
sI1990
I70
sI1991
I69
sI1992
I68
sI1993
I48
sI1994
I53
sI1995
I36
sI1996
I34
sI1997
I25
sI1998
I28
sI1999
I29
sI2000
I30
sI2001
I37
sI2002
I37
sI2003
I34
sI2004
I46
sI2005
I48
sI2006
I53
sI2007
I55
sI2008
I69
sI2009
I64
sI2010
I48
sI2011
I44
sI2012
I55
sI2013
I65
sI2014
I61
sI2015
I55
ssb(dp144
s(ipubmed_timeline
Term
p145
(dp146
g10
S'Tuberculosis'
p147
sg12
(dp148
I1945
I4
sI1946
I2
sI1947
I4
sI1948
I4
sI1949
I3
sI1950
I7
sI1951
I23
sI1952
I14
sI1953
I7
sI1954
I7
sI1955
I9
sI1956
I7
sI1957
I5
sI1958
I2
sI1959
I3
sI1960
I6
sI1961
I3
sI1962
I3
sI1963
I27
sI1964
I40
sI1965
I13
sI1966
I5
sI1967
I11
sI1968
I10
sI1969
I9
sI1970
I4
sI1971
I11
sI1972
I6
sI1973
I5
sI1974
I5
sI1975
I5
sI1976
I2
sI1977
I1
sI1978
I5
sI1979
I3
sI1980
I2
sI1981
I1
sI1982
I3
sI1983
I1
sI1984
I1
sI1985
I4
sI1986
I2
sI1987
I2
sI1989
I1
sI1991
I4
sI1992
I5
sI1993
I3
sI1994
I6
sI1995
I4
sI1996
I5
sI1997
I4
sI1998
I2
sI1999
I3
sI2000
I1
sI2001
I3
sI2002
I7
sI2003
I3
sI2004
I5
sI2005
I6
sI2006
I4
sI2007
I3
sI2008
I5
sI2009
I1
sI2010
I5
sI2011
I3
sI2012
I4
sI2013
I6
sI2014
I6
sI2015
I4
ssb(dp149
s(ipubmed_timeline
Term
p150
(dp151
g10
S'etiology'
p152
sg12
(dp153
I1945
I5
sI1946
I10
sI1947
I14
sI1948
I5
sI1949
I2
sI1951
I11
sI1952
I25
sI1953
I24
sI1954
I27
sI1955
I22
sI1956
I23
sI1957
I13
sI1958
I13
sI1959
I30
sI1960
I28
sI1961
I22
sI1962
I26
sI1964
I4
sI1965
I25
sI1966
I93
sI1967
I133
sI1968
I123
sI1969
I153
sI1970
I176
sI1971
I188
sI1972
I164
sI1973
I157
sI1974
I177
sI1975
I144
sI1976
I145
sI1977
I130
sI1978
I140
sI1979
I110
sI1980
I108
sI1981
I115
sI1982
I127
sI1983
I137
sI1984
I137
sI1985
I135
sI1986
I126
sI1987
I106
sI1988
I119
sI1989
I139
sI1990
I117
sI1991
I113
sI1992
I119
sI1993
I118
sI1994
I110
sI1995
I90
sI1996
I86
sI1997
I73
sI1998
I83
sI1999
I75
sI2000
I70
sI2001
I88
sI2002
I116
sI2003
I118
sI2004
I133
sI2005
I137
sI2006
I170
sI2007
I125
sI2008
I121
sI2009
I127
sI2010
I120
sI2011
I113
sI2012
I173
sI2013
I158
sI2014
I104
sI2015
I115
ssb(dp154
s(ipubmed_timeline
Term
p155
(dp156
g10
S'Gonorrhea'
p157
sg12
(dp158
I1945
I8
sI1946
I11
sI1947
I6
sI1948
I9
sI1949
I10
sI1950
I14
sI1951
I11
sI1952
I9
sI1953
I1
sI1954
I3
sI1955
I5
sI1956
I1
sI1957
I5
sI1958
I1
sI1959
I4
sI1960
I1
sI1961
I2
sI1962
I4
sI1963
I18
sI1964
I29
sI1965
I21
sI1966
I30
sI1967
I23
sI1968
I24
sI1969
I30
sI1970
I35
sI1971
I53
sI1972
I45
sI1973
I69
sI1974
I41
sI1975
I47
sI1976
I44
sI1977
I32
sI1978
I30
sI1979
I39
sI1980
I43
sI1981
I26
sI1982
I29
sI1983
I31
sI1984
I42
sI1985
I36
sI1986
I36
sI1987
I29
sI1988
I23
sI1989
I25
sI1990
I50
sI1991
I30
sI1992
I26
sI1993
I26
sI1994
I25
sI1995
I21
sI1996
I25
sI1997
I13
sI1998
I22
sI1999
I32
sI2000
I27
sI2001
I28
sI2002
I31
sI2003
I34
sI2004
I21
sI2005
I30
sI2006
I23
sI2007
I34
sI2008
I22
sI2009
I26
sI2010
I25
sI2011
I30
sI2012
I40
sI2013
I44
sI2014
I46
sI2015
I38
ssb(dp159
s(ipubmed_timeline
Term
p160
(dp161
g10
S'Retrospective Studies'
p162
sg12
(dp163
I1956
I1
sI1964
I1
sI1965
I1
sI1966
I3
sI1968
I3
sI1969
I5
sI1970
I1
sI1971
I4
sI1975
I3
sI1976
I3
sI1977
I2
sI1978
I1
sI1979
I6
sI1980
I4
sI1981
I4
sI1982
I2
sI1983
I1
sI1984
I5
sI1985
I3
sI1986
I2
sI1987
I7
sI1988
I6
sI1989
I10
sI1990
I10
sI1991
I16
sI1992
I17
sI1993
I14
sI1994
I15
sI1995
I19
sI1996
I10
sI1997
I17
sI1998
I17
sI1999
I21
sI2000
I13
sI2001
I25
sI2002
I21
sI2003
I23
sI2004
I26
sI2005
I28
sI2006
I25
sI2007
I25
sI2008
I30
sI2009
I33
sI2010
I46
sI2011
I32
sI2012
I31
sI2013
I67
sI2014
I56
sI2015
I43
ssb(dp164
s(ipubmed_timeline
Term
p165
(dp166
g10
S'transmission'
p167
sg12
(dp168
I1945
I8
sI1946
I6
sI1947
I14
sI1948
I12
sI1949
I8
sI1953
I17
sI1954
I16
sI1955
I2
sI1956
I8
sI1957
I8
sI1958
I18
sI1959
I2
sI1960
I6
sI1961
I6
sI1970
I1
sI1972
I1
sI1973
I3
sI1974
I11
sI1975
I22
sI1976
I29
sI1977
I16
sI1978
I25
sI1979
I35
sI1980
I32
sI1981
I53
sI1982
I79
sI1983
I52
sI1984
I84
sI1985
I48
sI1986
I30
sI1987
I29
sI1988
I33
sI1989
I61
sI1990
I46
sI1991
I57
sI1992
I39
sI1993
I73
sI1994
I70
sI1995
I87
sI1996
I58
sI1997
I47
sI1998
I78
sI1999
I82
sI2000
I71
sI2001
I99
sI2002
I76
sI2003
I56
sI2004
I55
sI2005
I100
sI2006
I72
sI2007
I104
sI2008
I84
sI2009
I118
sI2010
I94
sI2011
I114
sI2012
I126
sI2013
I133
sI2014
I89
sI2015
I105
ssb(dp169
s(ipubmed_timeline
Term
p170
(dp171
g10
S'Sexual Behavior'
p172
sg12
(dp173
I1949
I1
sI1950
I1
sI1952
I1
sI1953
I1
sI1960
I1
sI1963
I3
sI1965
I2
sI1966
I2
sI1967
I1
sI1968
I1
sI1969
I3
sI1970
I4
sI1971
I5
sI1972
I2
sI1973
I3
sI1974
I10
sI1975
I2
sI1976
I6
sI1977
I4
sI1978
I3
sI1979
I5
sI1980
I2
sI1981
I7
sI1982
I13
sI1983
I9
sI1984
I11
sI1985
I11
sI1986
I1
sI1987
I9
sI1988
I21
sI1989
I14
sI1990
I26
sI1991
I19
sI1992
I29
sI1993
I26
sI1994
I34
sI1995
I21
sI1996
I26
sI1997
I25
sI1998
I24
sI1999
I18
sI2000
I26
sI2001
I26
sI2002
I43
sI2003
I42
sI2004
I31
sI2005
I38
sI2006
I43
sI2007
I40
sI2008
I46
sI2009
I49
sI2010
I43
sI2011
I57
sI2012
I64
sI2013
I73
sI2014
I68
sI2015
I65
ssb(dp174
s(ipubmed_timeline
Term
p175
(dp176
g10
S'prevention & control'
p177
sg12
(dp178
I1945
I4
sI1946
I16
sI1947
I7
sI1948
I13
sI1949
I15
sI1951
I16
sI1952
I44
sI1953
I33
sI1954
I35
sI1955
I27
sI1956
I21
sI1957
I18
sI1958
I13
sI1959
I10
sI1960
I9
sI1961
I1
sI1962
I6
sI1963
I1
sI1965
I17
sI1966
I42
sI1967
I25
sI1968
I34
sI1969
I42
sI1970
I32
sI1971
I71
sI1972
I43
sI1973
I73
sI1974
I31
sI1975
I31
sI1976
I32
sI1977
I23
sI1978
I22
sI1979
I23
sI1980
I36
sI1981
I27
sI1982
I29
sI1983
I37
sI1984
I39
sI1985
I57
sI1986
I48
sI1987
I37
sI1988
I58
sI1989
I40
sI1990
I69
sI1991
I95
sI1992
I55
sI1993
I103
sI1994
I115
sI1995
I75
sI1996
I71
sI1997
I76
sI1998
I105
sI1999
I105
sI2000
I108
sI2001
I129
sI2002
I153
sI2003
I141
sI2004
I137
sI2005
I130
sI2006
I141
sI2007
I157
sI2008
I141
sI2009
I161
sI2010
I141
sI2011
I158
sI2012
I185
sI2013
I251
sI2014
I187
sI2015
I156
ssb(dp179
s(ipubmed_timeline
Term
p180
(dp181
g10
S'Pregnancy'
p182
sg12
(dp183
I1945
I5
sI1946
I18
sI1947
I35
sI1948
I14
sI1949
I24
sI1950
I54
sI1951
I44
sI1952
I43
sI1953
I34
sI1954
I23
sI1955
I19
sI1956
I24
sI1957
I13
sI1958
I9
sI1959
I10
sI1960
I5
sI1961
I6
sI1962
I12
sI1963
I23
sI1964
I28
sI1965
I16
sI1966
I31
sI1967
I15
sI1968
I28
sI1969
I38
sI1970
I26
sI1971
I33
sI1972
I40
sI1973
I43
sI1974
I32
sI1975
I44
sI1976
I41
sI1977
I25
sI1978
I27
sI1979
I35
sI1980
I19
sI1981
I30
sI1982
I35
sI1983
I28
sI1984
I36
sI1985
I36
sI1986
I32
sI1987
I28
sI1988
I30
sI1989
I48
sI1990
I57
sI1991
I59
sI1992
I52
sI1993
I62
sI1994
I72
sI1995
I65
sI1996
I43
sI1997
I36
sI1998
I53
sI1999
I45
sI2000
I42
sI2001
I63
sI2002
I47
sI2003
I38
sI2004
I63
sI2005
I47
sI2006
I57
sI2007
I76
sI2008
I49
sI2009
I50
sI2010
I58
sI2011
I58
sI2012
I64
sI2013
I73
sI2014
I66
sI2015
I76
ssb(dp184
s(ipubmed_timeline
Term
p185
(dp186
g10
S'Pregnancy Complications, Infectious'
p187
sg12
(dp188
I1963
I11
sI1964
I11
sI1965
I8
sI1966
I11
sI1967
I9
sI1968
I12
sI1969
I16
sI1970
I16
sI1971
I15
sI1972
I14
sI1973
I23
sI1974
I15
sI1975
I21
sI1976
I24
sI1977
I8
sI1978
I10
sI1979
I14
sI1980
I7
sI1981
I16
sI1982
I12
sI1983
I18
sI1984
I17
sI1985
I22
sI1986
I14
sI1987
I15
sI1988
I15
sI1989
I20
sI1990
I30
sI1991
I22
sI1992
I31
sI1993
I33
sI1994
I36
sI1995
I32
sI1996
I22
sI1997
I21
sI1998
I28
sI1999
I30
sI2000
I27
sI2001
I40
sI2002
I28
sI2003
I21
sI2004
I39
sI2005
I30
sI2006
I48
sI2007
I50
sI2008
I33
sI2009
I31
sI2010
I38
sI2011
I35
sI2012
I47
sI2013
I45
sI2014
I37
sI2015
I48
ssb(dp189
s(ipubmed_timeline
Term
p190
(dp191
g10
VDRUG
p192
sg12
(dp193
I1947
I1
sI1948
I7
sI1951
I2
sI1953
I3
sI1954
I3
sI1955
I1
sI1956
I1
sI1957
I1
sI1958
I1
sI1964
I1
sI1965
I74
sI1966
I119
sI1967
I154
sI1968
I128
sI1969
I158
sI1970
I141
sI1971
I197
sI1972
I155
sI1973
I182
sI1974
I171
sI1975
I145
sI1976
I197
sI1977
I121
sI1978
I94
sI1979
I144
sI1980
I101
sI1981
I98
sI1982
I136
sI1983
I130
sI1984
I171
sI1985
I130
sI1986
I132
sI1987
I118
sI1988
I128
sI1989
I146
sI1990
I163
sI1991
I129
sI1992
I107
sI1993
I143
sI1994
I114
sI1995
I126
sI1996
I100
sI1997
I88
sI1998
I95
sI1999
I150
sI2000
I101
sI2001
I76
sI2002
I134
sI2003
I131
sI2004
I165
sI2005
I143
sI2006
I188
sI2007
I144
sI2008
I139
sI2009
I225
sI2010
I209
sI2011
I218
sI2012
I240
sI2013
I256
sI2014
I209
sI2015
I222
ssb(dp194
s(ipubmed_timeline
Term
p195
(dp196
g10
S'United States'
p197
sg12
(dp198
I1945
I2
sI1946
I1
sI1947
I5
sI1948
I1
sI1949
I3
sI1950
I5
sI1951
I12
sI1952
I3
sI1953
I3
sI1954
I5
sI1955
I1
sI1956
I1
sI1957
I1
sI1958
I1
sI1959
I1
sI1961
I1
sI1962
I1
sI1963
I10
sI1964
I11
sI1965
I8
sI1966
I8
sI1967
I9
sI1968
I9
sI1969
I14
sI1970
I10
sI1971
I14
sI1972
I11
sI1973
I26
sI1974
I14
sI1975
I13
sI1976
I6
sI1977
I11
sI1978
I12
sI1979
I4
sI1980
I13
sI1981
I16
sI1982
I16
sI1983
I12
sI1984
I18
sI1985
I15
sI1986
I13
sI1987
I10
sI1988
I24
sI1989
I22
sI1990
I23
sI1991
I38
sI1992
I39
sI1993
I29
sI1994
I38
sI1995
I25
sI1996
I28
sI1997
I23
sI1998
I23
sI1999
I33
sI2000
I25
sI2001
I47
sI2002
I37
sI2003
I34
sI2004
I21
sI2005
I33
sI2006
I26
sI2007
I24
sI2008
I28
sI2009
I15
sI2010
I28
sI2011
I25
sI2012
I27
sI2013
I36
sI2014
I25
sI2015
I28
ssb(dp199
s(ipubmed_timeline
Term
p200
(dp201
g10
S'Anti-Bacterial Agents'
p202
sg12
(dp203
I1947
I1
sI1949
I4
sI1950
I4
sI1951
I7
sI1952
I4
sI1953
I7
sI1954
I7
sI1955
I9
sI1956
I6
sI1957
I7
sI1958
I4
sI1959
I7
sI1960
I5
sI1961
I3
sI1962
I3
sI1963
I13
sI1964
I14
sI1965
I8
sI1966
I8
sI1967
I7
sI1968
I13
sI1969
I16
sI1970
I13
sI1971
I12
sI1972
I11
sI1973
I13
sI1974
I8
sI1975
I9
sI1976
I19
sI1977
I4
sI1978
I7
sI1979
I13
sI1980
I6
sI1981
I5
sI1982
I5
sI1983
I8
sI1984
I16
sI1985
I7
sI1986
I8
sI1987
I8
sI1988
I12
sI1989
I10
sI1990
I10
sI1991
I10
sI1992
I6
sI1993
I9
sI1994
I7
sI1995
I7
sI1996
I10
sI1997
I8
sI1998
I7
sI1999
I9
sI2000
I10
sI2001
I6
sI2002
I19
sI2003
I19
sI2004
I34
sI2005
I35
sI2006
I45
sI2007
I33
sI2008
I47
sI2009
I65
sI2010
I52
sI2011
I52
sI2012
I73
sI2013
I79
sI2014
I68
sI2015
I70
ssb(dp204
s(ipubmed_timeline
Term
p205
(dp206
g10
S'Prevalence'
p207
sg12
(dp208
I1948
I1
sI1949
I3
sI1951
I1
sI1953
I1
sI1954
I3
sI1956
I1
sI1960
I1
sI1961
I1
sI1962
I1
sI1963
I1
sI1964
I1
sI1972
I1
sI1976
I1
sI1980
I4
sI1984
I5
sI1985
I4
sI1986
I3
sI1987
I4
sI1988
I2
sI1989
I11
sI1990
I38
sI1991
I40
sI1992
I49
sI1993
I50
sI1994
I63
sI1995
I54
sI1996
I43
sI1997
I52
sI1998
I59
sI1999
I51
sI2000
I44
sI2001
I60
sI2002
I67
sI2003
I64
sI2004
I42
sI2005
I54
sI2006
I62
sI2007
I60
sI2008
I72
sI2009
I77
sI2010
I78
sI2011
I82
sI2012
I112
sI2013
I117
sI2014
I129
sI2015
I99
ssb(dp209
ssS'node_dict_factory'
p210
c__builtin__
dict
p211
sS'edge_attr_dict_factory'
p212
g211
sS'edge'
p213
(dp214
g8
(dp215
g120
(dp216
S'w'
p217
I1
ssg110
(dp218
g217
I1
ssg155
(dp219
g217
I1
ssg85
(dp220
g217
I1
ssg25
(dp221
g217
I1
ssg100
(dp222
g217
I1
ssg20
(dp223
g217
I1
ssg115
(dp224
g217
I1
ssg35
(dp225
g217
I1
ssg125
(dp226
g217
I1
ssg130
(dp227
g217
I1
ssg135
(dp228
g217
I1
ssg140
(dp229
g217
I1
ssg165
(dp230
g217
I1
ssg170
(dp231
g217
I1
ssg175
(dp232
g217
I1
ssg180
(dp233
g217
I1
ssg185
(dp234
g217
I1
ssg190
(dp235
g217
I1
ssg195
(dp236
g217
I1
ssg40
(dp237
g217
I1
ssg200
(dp238
g217
I1
ssg45
(dp239
g217
I1
ssg50
(dp240
g217
I1
ssg55
(dp241
g217
I1
ssg60
(dp242
g217
I1
ssg65
(dp243
g217
I1
ssg150
(dp244
g217
I1
ssg80
(dp245
g217
I1
ssg90
(dp246
g217
I1
ssg95
(dp247
g217
I1
ssg105
(dp248
g217
I1
ssg145
(dp249
g217
I1
ssg15
(dp250
g217
I1
ssg70
(dp251
g217
I1
ssg205
(dp252
g217
I1
ssg75
(dp253
g217
I1
ssg30
(dp254
g217
I1
ssg160
(dp255
g217
I1
sssg15
(dp256
g150
(dp257
g217
I1
ssg135
(dp258
g217
I1
ssg8
g250
sg25
(dp259
g217
I1
ssg110
(dp260
g217
I1
ssg115
(dp261
g217
I1
ssg35
(dp262
g217
I1
ssg120
(dp263
g217
I1
ssg125
(dp264
g217
I1
ssg130
(dp265
g217
I1
ssg140
(dp266
g217
I1
ssg165
(dp267
g217
I1
ssg170
(dp268
g217
I1
ssg175
(dp269
g217
I1
ssg180
(dp270
g217
I1
ssg185
(dp271
g217
I1
ssg190
(dp272
g217
I1
ssg195
(dp273
g217
I1
ssg200
(dp274
g217
I1
ssg55
(dp275
g217
I1
ssg20
(dp276
g217
I1
ssg40
(dp277
g217
I1
ssg45
(dp278
g217
I1
ssg50
(dp279
g217
I1
ssg60
(dp280
g217
I1
ssg65
(dp281
g217
I1
ssg70
(dp282
g217
I1
ssg80
(dp283
g217
I1
ssg85
(dp284
g217
I1
ssg90
(dp285
g217
I1
ssg95
(dp286
g217
I1
ssg100
(dp287
g217
I1
ssg105
(dp288
g217
I1
ssg145
(dp289
g217
I1
ssg15
(dp290
g217
I1
ssg160
(dp291
g217
I1
ssg155
(dp292
g217
I1
ssg205
(dp293
g217
I1
ssg75
(dp294
g217
I1
ssg30
(dp295
g217
I1
sssg20
(dp296
g8
g223
sg15
g276
sg25
(dp297
g217
I1
ssg20
(dp298
g217
I1
ssg95
(dp299
g217
I1
ssg110
(dp300
g217
I1
ssg35
(dp301
g217
I1
ssg40
(dp302
g217
I1
ssg45
(dp303
g217
I1
ssg50
(dp304
g217
I1
ssg55
(dp305
g217
I1
ssg60
(dp306
g217
I1
ssg65
(dp307
g217
I1
ssg70
(dp308
g217
I1
ssg155
(dp309
g217
I1
ssg75
(dp310
g217
I1
ssg80
(dp311
g217
I1
ssg85
(dp312
g217
I1
ssg90
(dp313
g217
I1
ssg100
(dp314
g217
I1
ssg105
(dp315
g217
I1
ssg115
(dp316
g217
I1
ssg125
(dp317
g217
I1
ssg135
(dp318
g217
I1
ssg120
(dp319
g217
I1
ssg130
(dp320
g217
I1
ssg140
(dp321
g217
I1
ssg145
(dp322
g217
I1
ssg150
(dp323
g217
I1
ssg160
(dp324
g217
I1
ssg165
(dp325
g217
I1
ssg170
(dp326
g217
I1
ssg175
(dp327
g217
I1
ssg180
(dp328
g217
I1
ssg185
(dp329
g217
I1
ssg190
(dp330
g217
I1
ssg195
(dp331
g217
I1
ssg200
(dp332
g217
I1
ssg205
(dp333
g217
I1
ssg30
(dp334
g217
I1
sssg25
(dp335
g110
(dp336
g217
I1
ssg135
(dp337
g217
I1
ssg85
(dp338
g217
I1
ssg170
(dp339
g217
I1
ssg185
(dp340
g217
I1
ssg190
(dp341
g217
I1
ssg195
(dp342
g217
I1
ssg30
(dp343
g217
I1
ssg35
(dp344
g217
I1
ssg120
(dp345
g217
I1
ssg125
(dp346
g217
I1
ssg130
(dp347
g217
I1
ssg140
(dp348
g217
I1
ssg180
(dp349
g217
I1
ssg165
(dp350
g217
I1
ssg175
(dp351
g217
I1
ssg200
(dp352
g217
I1
ssg20
g297
sg95
(dp353
g217
I1
ssg40
(dp354
g217
I1
ssg45
(dp355
g217
I1
ssg50
(dp356
g217
I1
ssg55
(dp357
g217
I1
ssg60
(dp358
g217
I1
ssg65
(dp359
g217
I1
ssg205
(dp360
g217
I1
ssg8
g221
sg80
(dp361
g217
I1
ssg100
(dp362
g217
I1
ssg105
(dp363
g217
I1
ssg145
(dp364
g217
I1
ssg15
g259
sg70
(dp365
g217
I1
ssg150
(dp366
g217
I1
ssg155
(dp367
g217
I1
ssg75
(dp368
g217
I1
ssg160
(dp369
g217
I1
ssg90
(dp370
g217
I1
ssg115
(dp371
g217
I1
sssg30
(dp372
g120
(dp373
g217
I1
ssg110
(dp374
g217
I1
ssg155
(dp375
g217
I1
ssg25
g343
sg35
(dp376
g217
I1
ssg125
(dp377
g217
I1
ssg130
(dp378
g217
I1
ssg135
(dp379
g217
I1
ssg140
(dp380
g217
I1
ssg165
(dp381
g217
I1
ssg170
(dp382
g217
I1
ssg175
(dp383
g217
I1
ssg180
(dp384
g217
I1
ssg185
(dp385
g217
I1
ssg190
(dp386
g217
I1
ssg195
(dp387
g217
I1
ssg200
(dp388
g217
I1
ssg55
(dp389
g217
I1
ssg205
(dp390
g217
I1
ssg20
g334
sg60
(dp391
g217
I1
ssg40
(dp392
g217
I1
ssg45
(dp393
g217
I1
ssg50
(dp394
g217
I1
ssg65
(dp395
g217
I1
ssg150
(dp396
g217
I1
ssg8
g254
sg80
(dp397
g217
I1
ssg85
(dp398
g217
I1
ssg90
(dp399
g217
I1
ssg95
(dp400
g217
I1
ssg100
(dp401
g217
I1
ssg105
(dp402
g217
I1
ssg145
(dp403
g217
I1
ssg15
g295
sg70
(dp404
g217
I1
ssg75
(dp405
g217
I1
ssg30
(dp406
g217
I1
ssg160
(dp407
g217
I1
ssg115
(dp408
g217
I1
sssg35
(dp409
g120
(dp410
g217
I1
ssg125
(dp411
g217
I1
ssg110
(dp412
g217
I1
ssg85
(dp413
g217
I1
ssg25
g344
sg30
g376
sg35
(dp414
g217
I1
ssg130
(dp415
g217
I1
ssg135
(dp416
g217
I1
ssg140
(dp417
g217
I1
ssg165
(dp418
g217
I1
ssg170
(dp419
g217
I1
ssg175
(dp420
g217
I1
ssg180
(dp421
g217
I1
ssg185
(dp422
g217
I1
ssg195
(dp423
g217
I1
ssg190
(dp424
g217
I1
ssg200
(dp425
g217
I1
ssg20
g301
sg60
(dp426
g217
I1
ssg40
(dp427
g217
I1
ssg45
(dp428
g217
I1
ssg50
(dp429
g217
I1
ssg55
(dp430
g217
I1
ssg65
(dp431
g217
I1
ssg205
(dp432
g217
I1
ssg75
(dp433
g217
I1
ssg8
g225
sg95
(dp434
g217
I1
ssg100
(dp435
g217
I1
ssg105
(dp436
g217
I1
ssg145
(dp437
g217
I1
ssg160
(dp438
g217
I1
ssg15
g262
sg70
(dp439
g217
I1
ssg150
(dp440
g217
I1
ssg155
(dp441
g217
I1
ssg80
(dp442
g217
I1
ssg90
(dp443
g217
I1
ssg115
(dp444
g217
I1
sssg40
(dp445
g140
(dp446
g217
I1
ssg8
g237
sg85
(dp447
g217
I1
ssg25
g354
sg110
(dp448
g217
I1
ssg165
(dp449
g217
I1
ssg190
(dp450
g217
I1
ssg195
(dp451
g217
I1
ssg30
g392
sg115
(dp452
g217
I1
ssg35
g427
sg120
(dp453
g217
I1
ssg125
(dp454
g217
I1
ssg130
(dp455
g217
I1
ssg135
(dp456
g217
I1
ssg180
(dp457
g217
I1
ssg170
(dp458
g217
I1
ssg175
(dp459
g217
I1
ssg185
(dp460
g217
I1
ssg200
(dp461
g217
I1
ssg205
(dp462
g217
I1
ssg20
g302
sg95
(dp463
g217
I1
ssg40
(dp464
g217
I1
ssg45
(dp465
g217
I1
ssg50
(dp466
g217
I1
ssg55
(dp467
g217
I1
ssg60
(dp468
g217
I1
ssg65
(dp469
g217
I1
ssg150
(dp470
g217
I1
ssg100
(dp471
g217
I1
ssg105
(dp472
g217
I1
ssg145
(dp473
g217
I1
ssg15
g277
sg70
(dp474
g217
I1
ssg155
(dp475
g217
I1
ssg75
(dp476
g217
I1
ssg80
(dp477
g217
I1
ssg160
(dp478
g217
I1
ssg90
(dp479
g217
I1
sssg45
(dp480
g120
(dp481
g217
I1
ssg110
(dp482
g217
I1
ssg25
g355
sg95
(dp483
g217
I1
ssg100
(dp484
g217
I1
ssg115
(dp485
g217
I1
ssg35
g428
sg125
(dp486
g217
I1
ssg130
(dp487
g217
I1
ssg135
(dp488
g217
I1
ssg140
(dp489
g217
I1
ssg165
(dp490
g217
I1
ssg170
(dp491
g217
I1
ssg175
(dp492
g217
I1
ssg180
(dp493
g217
I1
ssg185
(dp494
g217
I1
ssg190
(dp495
g217
I1
ssg195
(dp496
g217
I1
ssg200
(dp497
g217
I1
ssg30
g393
sg55
(dp498
g217
I1
ssg20
g303
sg40
g465
sg45
(dp499
g217
I1
ssg50
(dp500
g217
I1
ssg60
(dp501
g217
I1
ssg65
(dp502
g217
I1
ssg70
(dp503
g217
I1
ssg85
(dp504
g217
I1
ssg105
(dp505
g217
I1
ssg145
(dp506
g217
I1
ssg15
g278
sg160
(dp507
g217
I1
ssg8
g239
sg150
(dp508
g217
I1
ssg155
(dp509
g217
I1
ssg205
(dp510
g217
I1
ssg75
(dp511
g217
I1
ssg80
(dp512
g217
I1
ssg90
(dp513
g217
I1
sssg50
(dp514
g130
(dp515
g217
I1
ssg25
g356
sg110
(dp516
g217
I1
ssg30
g394
sg35
g429
sg120
(dp517
g217
I1
ssg125
(dp518
g217
I1
ssg135
(dp519
g217
I1
ssg140
(dp520
g217
I1
ssg165
(dp521
g217
I1
ssg170
(dp522
g217
I1
ssg175
(dp523
g217
I1
ssg180
(dp524
g217
I1
ssg185
(dp525
g217
I1
ssg190
(dp526
g217
I1
ssg195
(dp527
g217
I1
ssg60
(dp528
g217
I1
ssg200
(dp529
g217
I1
ssg20
g304
sg40
g466
sg45
g500
sg50
(dp530
g217
I1
ssg55
(dp531
g217
I1
ssg65
(dp532
g217
I1
ssg150
(dp533
g217
I1
ssg155
(dp534
g217
I1
ssg8
g240
sg85
(dp535
g217
I1
ssg95
(dp536
g217
I1
ssg100
(dp537
g217
I1
ssg105
(dp538
g217
I1
ssg145
(dp539
g217
I1
ssg15
g279
sg90
(dp540
g217
I1
ssg70
(dp541
g217
I1
ssg205
(dp542
g217
I1
ssg75
(dp543
g217
I1
ssg80
(dp544
g217
I1
ssg160
(dp545
g217
I1
ssg115
(dp546
g217
I1
sssg55
(dp547
g150
(dp548
g217
I1
ssg120
(dp549
g217
I1
ssg155
(dp550
g217
I1
ssg15
g275
sg25
g357
sg110
(dp551
g217
I1
ssg100
(dp552
g217
I1
ssg165
(dp553
g217
I1
ssg185
(dp554
g217
I1
ssg190
(dp555
g217
I1
ssg195
(dp556
g217
I1
ssg30
g389
sg115
(dp557
g217
I1
ssg35
g430
sg125
(dp558
g217
I1
ssg130
(dp559
g217
I1
ssg135
(dp560
g217
I1
ssg140
(dp561
g217
I1
ssg180
(dp562
g217
I1
ssg170
(dp563
g217
I1
ssg175
(dp564
g217
I1
ssg60
(dp565
g217
I1
ssg200
(dp566
g217
I1
ssg205
(dp567
g217
I1
ssg70
(dp568
g217
I1
ssg20
g305
sg145
(dp569
g217
I1
ssg40
g467
sg45
g498
sg50
g531
sg55
(dp570
g217
I1
ssg65
(dp571
g217
I1
ssg75
(dp572
g217
I1
ssg8
g241
sg85
(dp573
g217
I1
ssg95
(dp574
g217
I1
ssg105
(dp575
g217
I1
ssg90
(dp576
g217
I1
ssg80
(dp577
g217
I1
ssg160
(dp578
g217
I1
sssg60
(dp579
g110
(dp580
g217
I1
ssg135
(dp581
g217
I1
ssg140
(dp582
g217
I1
ssg30
g391
sg115
(dp583
g217
I1
ssg35
g426
sg120
(dp584
g217
I1
ssg125
(dp585
g217
I1
ssg130
(dp586
g217
I1
ssg165
(dp587
g217
I1
ssg170
(dp588
g217
I1
ssg175
(dp589
g217
I1
ssg180
(dp590
g217
I1
ssg185
(dp591
g217
I1
ssg190
(dp592
g217
I1
ssg195
(dp593
g217
I1
ssg85
(dp594
g217
I1
ssg200
(dp595
g217
I1
ssg20
g306
sg95
(dp596
g217
I1
ssg40
g468
sg45
g501
sg50
g528
sg145
(dp597
g217
I1
ssg55
g565
sg60
(dp598
g217
I1
ssg65
(dp599
g217
I1
ssg150
(dp600
g217
I1
ssg155
(dp601
g217
I1
ssg8
g242
sg100
(dp602
g217
I1
ssg105
(dp603
g217
I1
ssg160
(dp604
g217
I1
ssg25
g358
sg15
g280
sg70
(dp605
g217
I1
ssg205
(dp606
g217
I1
ssg75
(dp607
g217
I1
ssg80
(dp608
g217
I1
ssg90
(dp609
g217
I1
sssg65
(dp610
g110
(dp611
g217
I1
ssg135
(dp612
g217
I1
ssg155
(dp613
g217
I1
ssg140
(dp614
g217
I1
ssg165
(dp615
g217
I1
ssg180
(dp616
g217
I1
ssg190
(dp617
g217
I1
ssg195
(dp618
g217
I1
ssg30
g395
sg35
g431
sg120
(dp619
g217
I1
ssg125
(dp620
g217
I1
ssg130
(dp621
g217
I1
ssg170
(dp622
g217
I1
ssg175
(dp623
g217
I1
ssg185
(dp624
g217
I1
ssg200
(dp625
g217
I1
ssg20
g307
sg40
g469
sg45
g502
sg50
g532
sg55
g571
sg60
g599
sg65
(dp626
g217
I1
ssg150
(dp627
g217
I1
ssg8
g243
sg115
(dp628
g217
I1
ssg85
(dp629
g217
I1
ssg95
(dp630
g217
I1
ssg100
(dp631
g217
I1
ssg105
(dp632
g217
I1
ssg145
(dp633
g217
I1
ssg25
g359
sg15
g281
sg70
(dp634
g217
I1
ssg205
(dp635
g217
I1
ssg75
(dp636
g217
I1
ssg80
(dp637
g217
I1
ssg160
(dp638
g217
I1
ssg90
(dp639
g217
I1
sssg70
(dp640
g155
(dp641
g217
I1
ssg140
(dp642
g217
I1
ssg8
g251
sg85
(dp643
g217
I1
ssg25
g365
sg110
(dp644
g217
I1
ssg165
(dp645
g217
I1
ssg30
g404
sg115
(dp646
g217
I1
ssg35
g439
sg120
(dp647
g217
I1
ssg125
(dp648
g217
I1
ssg130
(dp649
g217
I1
ssg135
(dp650
g217
I1
ssg170
(dp651
g217
I1
ssg175
(dp652
g217
I1
ssg180
(dp653
g217
I1
ssg185
(dp654
g217
I1
ssg190
(dp655
g217
I1
ssg195
(dp656
g217
I1
ssg200
(dp657
g217
I1
ssg55
g568
sg20
g308
sg95
(dp658
g217
I1
ssg65
g634
sg40
g474
sg45
g503
sg50
g541
sg60
g605
sg100
(dp659
g217
I1
ssg105
(dp660
g217
I1
ssg145
(dp661
g217
I1
ssg15
g282
sg70
(dp662
g217
I1
ssg150
(dp663
g217
I1
ssg205
(dp664
g217
I1
ssg75
(dp665
g217
I1
ssg80
(dp666
g217
I1
ssg160
(dp667
g217
I1
ssg90
(dp668
g217
I1
sssg75
(dp669
g120
(dp670
g217
I1
ssg130
(dp671
g217
I1
ssg110
(dp672
g217
I1
ssg140
(dp673
g217
I1
ssg75
(dp674
g217
I1
ssg85
(dp675
g217
I1
ssg25
g368
sg115
(dp676
g217
I1
ssg35
g433
sg125
(dp677
g217
I1
ssg135
(dp678
g217
I1
ssg165
(dp679
g217
I1
ssg170
(dp680
g217
I1
ssg175
(dp681
g217
I1
ssg180
(dp682
g217
I1
ssg185
(dp683
g217
I1
ssg190
(dp684
g217
I1
ssg195
(dp685
g217
I1
ssg200
(dp686
g217
I1
ssg55
g572
sg20
g310
sg40
g476
sg45
g511
sg50
g543
sg60
g607
sg65
g636
sg70
g665
sg8
g253
sg95
(dp687
g217
I1
ssg100
(dp688
g217
I1
ssg105
(dp689
g217
I1
ssg145
(dp690
g217
I1
ssg15
g294
sg150
(dp691
g217
I1
ssg155
(dp692
g217
I1
ssg205
(dp693
g217
I1
ssg80
(dp694
g217
I1
ssg30
g405
sg160
(dp695
g217
I1
ssg90
(dp696
g217
I1
sssg80
(dp697
g125
(dp698
g217
I1
ssg75
g694
sg85
(dp699
g217
I1
ssg25
g361
sg45
g512
sg190
(dp700
g217
I1
ssg115
(dp701
g217
I1
ssg35
g442
sg130
(dp702
g217
I1
ssg135
(dp703
g217
I1
ssg165
(dp704
g217
I1
ssg170
(dp705
g217
I1
ssg175
(dp706
g217
I1
ssg180
(dp707
g217
I1
ssg185
(dp708
g217
I1
ssg195
(dp709
g217
I1
ssg200
(dp710
g217
I1
ssg110
(dp711
g217
I1
ssg30
g397
sg70
g666
sg20
g311
sg65
g637
sg40
g477
sg50
g544
sg55
g577
sg60
g608
sg155
(dp712
g217
I1
ssg8
g245
sg90
(dp713
g217
I1
ssg95
(dp714
g217
I1
ssg100
(dp715
g217
I1
ssg105
(dp716
g217
I1
ssg80
(dp717
g217
I1
ssg145
(dp718
g217
I1
ssg120
(dp719
g217
I1
ssg15
g283
sg150
(dp720
g217
I1
ssg205
(dp721
g217
I1
ssg160
(dp722
g217
I1
ssg140
(dp723
g217
I1
sssg85
(dp724
g8
g220
sg15
g284
sg25
g338
sg20
g312
sg110
(dp725
g217
I1
ssg30
g398
sg35
g413
sg45
g504
sg50
g535
sg40
g447
sg55
g573
sg60
g594
sg65
g629
sg70
g643
sg155
(dp726
g217
I1
ssg85
(dp727
g217
I1
ssg95
(dp728
g217
I1
ssg100
(dp729
g217
I1
ssg105
(dp730
g217
I1
ssg145
(dp731
g217
I1
ssg125
(dp732
g217
I1
ssg80
g699
sg120
(dp733
g217
I1
ssg130
(dp734
g217
I1
ssg135
(dp735
g217
I1
ssg140
(dp736
g217
I1
ssg150
(dp737
g217
I1
ssg75
g675
sg160
(dp738
g217
I1
ssg165
(dp739
g217
I1
ssg170
(dp740
g217
I1
ssg175
(dp741
g217
I1
ssg180
(dp742
g217
I1
ssg185
(dp743
g217
I1
ssg190
(dp744
g217
I1
ssg195
(dp745
g217
I1
ssg200
(dp746
g217
I1
ssg205
(dp747
g217
I1
ssg115
(dp748
g217
I1
ssg90
(dp749
g217
I1
sssg90
(dp750
g120
(dp751
g217
I1
ssg110
(dp752
g217
I1
ssg140
(dp753
g217
I1
ssg85
g749
sg100
(dp754
g217
I1
ssg30
g399
sg115
(dp755
g217
I1
ssg35
g443
sg125
(dp756
g217
I1
ssg130
(dp757
g217
I1
ssg135
(dp758
g217
I1
ssg165
(dp759
g217
I1
ssg170
(dp760
g217
I1
ssg175
(dp761
g217
I1
ssg180
(dp762
g217
I1
ssg185
(dp763
g217
I1
ssg190
(dp764
g217
I1
ssg195
(dp765
g217
I1
ssg200
(dp766
g217
I1
ssg55
g576
sg20
g313
sg65
g639
sg40
g479
sg45
g513
sg50
g540
sg60
g609
sg8
g246
sg80
g713
sg95
(dp767
g217
I1
ssg105
(dp768
g217
I1
ssg145
(dp769
g217
I1
ssg160
(dp770
g217
I1
ssg25
g370
sg15
g285
sg70
g668
sg150
(dp771
g217
I1
ssg155
(dp772
g217
I1
ssg205
(dp773
g217
I1
ssg75
g696
sg90
(dp774
g217
I1
sssg95
(dp775
g155
(dp776
g217
I1
ssg205
(dp777
g217
I1
ssg85
g728
sg25
g353
sg110
(dp778
g217
I1
ssg30
g400
sg35
g434
sg120
(dp779
g217
I1
ssg125
(dp780
g217
I1
ssg130
(dp781
g217
I1
ssg135
(dp782
g217
I1
ssg140
(dp783
g217
I1
ssg165
(dp784
g217
I1
ssg170
(dp785
g217
I1
ssg175
(dp786
g217
I1
ssg180
(dp787
g217
I1
ssg185
(dp788
g217
I1
ssg190
(dp789
g217
I1
ssg195
(dp790
g217
I1
ssg40
g463
sg200
(dp791
g217
I1
ssg55
g574
sg20
g299
sg60
g596
sg45
g483
sg50
g536
sg65
g630
sg8
g247
sg80
g714
sg90
g767
sg95
(dp792
g217
I1
ssg100
(dp793
g217
I1
ssg105
(dp794
g217
I1
ssg145
(dp795
g217
I1
ssg15
g286
sg70
g658
sg150
(dp796
g217
I1
ssg75
g687
sg160
(dp797
g217
I1
ssg115
(dp798
g217
I1
sssg100
(dp799
g200
(dp800
g217
I1
ssg25
g362
sg110
(dp801
g217
I1
ssg115
(dp802
g217
I1
ssg35
g435
sg120
(dp803
g217
I1
ssg125
(dp804
g217
I1
ssg130
(dp805
g217
I1
ssg135
(dp806
g217
I1
ssg165
(dp807
g217
I1
ssg170
(dp808
g217
I1
ssg175
(dp809
g217
I1
ssg180
(dp810
g217
I1
ssg185
(dp811
g217
I1
ssg190
(dp812
g217
I1
ssg195
(dp813
g217
I1
ssg20
g314
sg40
g471
sg45
g484
sg50
g537
sg55
g552
sg60
g602
sg65
g631
sg150
(dp814
g217
I1
ssg155
(dp815
g217
I1
ssg8
g222
sg85
g729
sg95
g793
sg100
(dp816
g217
I1
ssg105
(dp817
g217
I1
ssg145
(dp818
g217
I1
ssg15
g287
sg70
g659
sg205
(dp819
g217
I1
ssg75
g688
sg80
g715
sg30
g401
sg160
(dp820
g217
I1
ssg90
g754
sg140
(dp821
g217
I1
sssg105
(dp822
g120
(dp823
g217
I1
ssg125
(dp824
g217
I1
ssg110
(dp825
g217
I1
ssg85
g730
sg25
g363
sg115
(dp826
g217
I1
ssg35
g436
sg130
(dp827
g217
I1
ssg135
(dp828
g217
I1
ssg140
(dp829
g217
I1
ssg165
(dp830
g217
I1
ssg170
(dp831
g217
I1
ssg175
(dp832
g217
I1
ssg180
(dp833
g217
I1
ssg185
(dp834
g217
I1
ssg190
(dp835
g217
I1
ssg195
(dp836
g217
I1
ssg200
(dp837
g217
I1
ssg55
g575
sg20
g315
sg145
(dp838
g217
I1
ssg40
g472
sg45
g505
sg50
g538
sg60
g603
sg65
g632
sg70
g660
sg155
(dp839
g217
I1
ssg75
g689
sg8
g248
sg90
g768
sg95
g794
sg100
g817
sg105
(dp840
g217
I1
ssg15
g288
sg150
(dp841
g217
I1
ssg205
(dp842
g217
I1
ssg80
g716
sg30
g402
sg160
(dp843
g217
I1
sssg110
(dp844
g120
(dp845
g217
I1
ssg135
(dp846
g217
I1
ssg25
g336
sg165
(dp847
g217
I1
ssg30
g374
sg115
(dp848
g217
I1
ssg35
g412
sg125
(dp849
g217
I1
ssg130
(dp850
g217
I1
ssg140
(dp851
g217
I1
ssg170
(dp852
g217
I1
ssg175
(dp853
g217
I1
ssg180
(dp854
g217
I1
ssg185
(dp855
g217
I1
ssg190
(dp856
g217
I1
ssg195
(dp857
g217
I1
ssg200
(dp858
g217
I1
ssg205
(dp859
g217
I1
ssg20
g300
sg60
g580
sg40
g448
sg45
g482
sg50
g516
sg55
g551
sg65
g611
sg150
(dp860
g217
I1
ssg8
g218
sg80
g711
sg85
g725
sg90
g752
sg95
g778
sg100
g801
sg105
g825
sg145
(dp861
g217
I1
ssg15
g260
sg160
(dp862
g217
I1
ssg70
g644
sg155
(dp863
g217
I1
ssg75
g672
ssg115
(dp864
g8
g224
sg25
g371
sg20
g316
sg35
g444
sg40
g452
sg45
g485
sg50
g546
sg55
g557
sg60
g583
sg65
g628
sg70
g646
sg155
(dp865
g217
I1
ssg205
(dp866
g217
I1
ssg75
g676
sg80
g701
sg85
g748
sg90
g755
sg95
g798
sg100
g802
sg105
g826
sg15
g261
sg135
(dp867
g217
I1
ssg110
g848
sg115
(dp868
g217
I1
ssg120
(dp869
g217
I1
ssg125
(dp870
g217
I1
ssg130
(dp871
g217
I1
ssg140
(dp872
g217
I1
ssg145
(dp873
g217
I1
ssg150
(dp874
g217
I1
ssg160
(dp875
g217
I1
ssg165
(dp876
g217
I1
ssg170
(dp877
g217
I1
ssg175
(dp878
g217
I1
ssg180
(dp879
g217
I1
ssg185
(dp880
g217
I1
ssg190
(dp881
g217
I1
ssg195
(dp882
g217
I1
ssg200
(dp883
g217
I1
ssg30
g408
ssg120
(dp884
g110
g845
sg8
g216
sg25
g345
sg165
(dp885
g217
I1
ssg115
g869
sg35
g410
sg125
(dp886
g217
I1
ssg130
(dp887
g217
I1
ssg135
(dp888
g217
I1
ssg140
(dp889
g217
I1
ssg170
(dp890
g217
I1
ssg175
(dp891
g217
I1
ssg180
(dp892
g217
I1
ssg185
(dp893
g217
I1
ssg190
(dp894
g217
I1
ssg195
(dp895
g217
I1
ssg200
(dp896
g217
I1
ssg30
g373
sg20
g319
sg60
g584
sg65
g619
sg40
g453
sg45
g481
sg50
g517
sg55
g549
sg75
g670
sg85
g733
sg95
g779
sg100
g803
sg105
g823
sg145
(dp897
g217
I1
ssg160
(dp898
g217
I1
ssg15
g263
sg70
g647
sg150
(dp899
g217
I1
ssg155
(dp900
g217
I1
ssg205
(dp901
g217
I1
ssg80
g719
sg90
g751
ssg125
(dp902
g15
g264
sg25
g346
sg165
(dp903
g217
I1
ssg170
(dp904
g217
I1
ssg195
(dp905
g217
I1
ssg200
(dp906
g217
I1
ssg20
g317
sg110
g849
sg35
g411
sg60
g585
sg40
g454
sg45
g486
sg50
g518
sg55
g558
sg65
g620
sg70
g648
sg95
g780
sg100
g804
sg145
(dp907
g217
I1
ssg160
(dp908
g217
I1
ssg85
g732
sg105
g824
sg115
g870
sg120
g886
sg125
(dp909
g217
I1
ssg130
(dp910
g217
I1
ssg135
(dp911
g217
I1
ssg140
(dp912
g217
I1
ssg8
g226
sg150
(dp913
g217
I1
ssg155
(dp914
g217
I1
ssg75
g677
sg175
(dp915
g217
I1
ssg180
(dp916
g217
I1
ssg185
(dp917
g217
I1
ssg190
(dp918
g217
I1
ssg205
(dp919
g217
I1
ssg80
g698
sg30
g377
sg90
g756
ssg130
(dp920
g130
(dp921
g217
I1
ssg110
g850
sg140
(dp922
g217
I1
ssg25
g347
sg30
g378
sg115
g871
sg35
g415
sg120
g887
sg125
g910
sg135
(dp923
g217
I1
ssg165
(dp924
g217
I1
ssg170
(dp925
g217
I1
ssg175
(dp926
g217
I1
ssg180
(dp927
g217
I1
ssg185
(dp928
g217
I1
ssg190
(dp929
g217
I1
ssg195
(dp930
g217
I1
ssg200
(dp931
g217
I1
ssg55
g559
sg20
g320
sg65
g621
sg40
g455
sg45
g487
sg50
g515
sg60
g586
sg70
g649
sg155
(dp932
g217
I1
ssg8
g227
sg85
g734
sg95
g781
sg100
g805
sg105
g827
sg145
(dp933
g217
I1
ssg160
(dp934
g217
I1
ssg15
g265
sg150
(dp935
g217
I1
ssg205
(dp936
g217
I1
ssg75
g671
sg80
g702
sg90
g757
ssg135
(dp937
g8
g228
sg25
g337
sg165
(dp938
g217
I1
ssg20
g318
sg95
g782
sg15
g258
sg110
g846
sg35
g416
sg45
g488
sg55
g560
sg40
g456
sg50
g519
sg60
g581
sg65
g612
sg155
(dp939
g217
I1
ssg80
g703
sg90
g758
sg100
g806
sg105
g828
sg145
(dp940
g217
I1
ssg120
g888
sg140
(dp941
g217
I1
ssg85
g735
sg125
g911
sg130
g923
sg135
(dp942
g217
I1
ssg70
g650
sg150
(dp943
g217
I1
ssg75
g678
sg160
(dp944
g217
I1
ssg170
(dp945
g217
I1
ssg175
(dp946
g217
I1
ssg180
(dp947
g217
I1
ssg185
(dp948
g217
I1
ssg190
(dp949
g217
I1
ssg200
(dp950
g217
I1
ssg195
(dp951
g217
I1
ssg205
(dp952
g217
I1
ssg115
g867
sg30
g379
ssg140
(dp953
g110
g851
sg135
g941
sg85
g736
sg25
g348
sg100
g821
sg30
g380
sg35
g417
sg120
g889
sg125
g912
sg130
g922
sg165
(dp954
g217
I1
ssg170
(dp955
g217
I1
ssg175
(dp956
g217
I1
ssg180
(dp957
g217
I1
ssg185
(dp958
g217
I1
ssg190
(dp959
g217
I1
ssg195
(dp960
g217
I1
ssg200
(dp961
g217
I1
ssg55
g561
sg20
g321
sg60
g582
sg40
g446
sg45
g489
sg50
g520
sg65
g614
sg150
(dp962
g217
I1
ssg8
g229
sg80
g723
sg115
g872
sg95
g783
sg105
g829
sg145
(dp963
g217
I1
ssg15
g266
sg70
g642
sg155
(dp964
g217
I1
ssg205
(dp965
g217
I1
ssg75
g673
sg160
(dp966
g217
I1
ssg90
g753
ssg145
(dp967
g120
g897
sg130
g933
sg110
g861
sg135
g940
sg155
(dp968
g217
I1
ssg8
g249
sg85
g731
sg100
g818
sg165
(dp969
g217
I1
ssg170
(dp970
g217
I1
ssg175
(dp971
g217
I1
ssg190
(dp972
g217
I1
ssg195
(dp973
g217
I1
ssg30
g403
sg35
g437
sg125
g907
sg140
g963
sg180
(dp974
g217
I1
ssg185
(dp975
g217
I1
ssg200
(dp976
g217
I1
ssg20
g322
sg60
g597
sg40
g473
sg45
g506
sg50
g539
sg55
g569
sg65
g633
sg150
(dp977
g217
I1
ssg205
(dp978
g217
I1
ssg75
g690
sg80
g718
sg115
g873
sg95
g795
sg105
g838
sg160
(dp979
g217
I1
ssg25
g364
sg90
g769
sg15
g289
sg70
g661
ssg150
(dp980
g135
g943
sg8
g244
sg75
g691
sg25
g366
sg110
g860
sg180
(dp981
g217
I1
ssg195
(dp982
g217
I1
ssg115
g874
sg35
g440
sg120
g899
sg125
g913
sg130
g935
sg165
(dp983
g217
I1
ssg170
(dp984
g217
I1
ssg175
(dp985
g217
I1
ssg185
(dp986
g217
I1
ssg190
(dp987
g217
I1
ssg200
(dp988
g217
I1
ssg20
g323
sg60
g600
sg40
g470
sg45
g508
sg50
g533
sg55
g548
sg65
g627
sg70
g663
sg150
(dp989
g217
I1
ssg155
(dp990
g217
I1
ssg80
g720
sg85
g737
sg90
g771
sg95
g796
sg100
g814
sg105
g841
sg145
g977
sg15
g257
sg205
(dp991
g217
I1
ssg30
g396
sg160
(dp992
g217
I1
ssg140
g962
ssg155
(dp993
g120
g900
sg125
g914
sg85
g726
sg25
g367
sg110
g863
sg35
g441
sg130
g932
sg135
g939
sg165
(dp994
g217
I1
ssg170
(dp995
g217
I1
ssg175
(dp996
g217
I1
ssg180
(dp997
g217
I1
ssg185
(dp998
g217
I1
ssg190
(dp999
g217
I1
ssg195
(dp1000
g217
I1
ssg45
g509
sg200
(dp1001
g217
I1
ssg30
g375
sg55
g550
sg205
(dp1002
g217
I1
ssg20
g309
sg145
g968
sg65
g613
sg40
g475
sg50
g534
sg60
g601
sg150
g990
sg155
(dp1003
g217
I1
ssg75
g692
sg8
g219
sg90
g772
sg95
g776
sg100
g815
sg105
g839
sg15
g292
sg160
(dp1004
g217
I1
ssg70
g641
sg80
g712
sg140
g964
sg115
g865
ssg160
(dp1005
g110
g862
sg155
g1004
sg8
g255
sg85
g738
sg170
(dp1006
g217
I1
ssg30
g407
sg115
g875
sg35
g438
sg120
g898
sg125
g908
sg130
g934
sg135
g944
sg140
g966
sg165
(dp1007
g217
I1
ssg175
(dp1008
g217
I1
ssg180
(dp1009
g217
I1
ssg185
(dp1010
g217
I1
ssg190
(dp1011
g217
I1
ssg195
(dp1012
g217
I1
ssg200
(dp1013
g217
I1
ssg55
g578
sg205
(dp1014
g217
I1
ssg20
g324
sg40
g478
sg45
g507
sg50
g545
sg60
g604
sg65
g638
sg70
g667
sg80
g722
sg95
g797
sg100
g820
sg105
g843
sg145
g979
sg15
g291
sg160
(dp1015
g217
I1
ssg25
g369
sg150
g992
sg75
g695
sg90
g770
ssg165
(dp1016
g85
g739
sg25
g350
sg165
(dp1017
g217
I1
ssg30
g381
sg115
g876
sg35
g418
sg120
g885
sg125
g903
sg130
g924
sg135
g938
sg140
g954
sg170
(dp1018
g217
I1
ssg175
(dp1019
g217
I1
ssg180
(dp1020
g217
I1
ssg185
(dp1021
g217
I1
ssg190
(dp1022
g217
I1
ssg195
(dp1023
g217
I1
ssg200
(dp1024
g217
I1
ssg110
g847
sg20
g325
sg60
g587
sg40
g449
sg45
g490
sg50
g521
sg55
g553
sg65
g615
sg155
g994
sg75
g679
sg8
g230
sg80
g704
sg95
g784
sg100
g807
sg105
g830
sg145
g969
sg15
g267
sg160
g1007
sg70
g645
sg150
g983
sg205
(dp1025
g217
I1
ssg90
g759
ssg170
(dp1026
g120
g890
sg130
g925
sg110
g852
sg140
g955
sg8
g231
sg75
g680
sg85
g740
sg25
g339
sg165
g1018
sg35
g419
sg125
g904
sg135
g945
sg175
(dp1027
g217
I1
ssg180
(dp1028
g217
I1
ssg185
(dp1029
g217
I1
ssg190
(dp1030
g217
I1
ssg195
(dp1031
g217
I1
ssg200
(dp1032
g217
I1
ssg55
g563
sg20
g326
sg40
g458
sg45
g491
sg50
g522
sg60
g588
sg65
g622
sg70
g651
sg150
g984
sg115
g877
sg90
g760
sg95
g785
sg100
g808
sg105
g831
sg145
g970
sg15
g268
sg155
g995
sg205
(dp1033
g217
I1
ssg80
g705
sg30
g382
sg160
g1006
ssg175
(dp1034
g120
g891
sg125
g915
sg110
g853
sg25
g351
sg55
g564
sg30
g383
sg115
g878
sg35
g420
sg130
g926
sg135
g946
sg140
g956
sg165
g1019
sg170
g1027
sg175
(dp1035
g217
I1
ssg180
(dp1036
g217
I1
ssg185
(dp1037
g217
I1
ssg190
(dp1038
g217
I1
ssg195
(dp1039
g217
I1
ssg200
(dp1040
g217
I1
ssg20
g327
sg40
g459
sg45
g492
sg50
g523
sg60
g589
sg65
g623
sg70
g652
sg155
g996
sg75
g681
sg8
g232
sg85
g741
sg95
g786
sg100
g809
sg105
g832
sg145
g971
sg15
g269
sg150
g985
sg205
(dp1041
g217
I1
ssg80
g706
sg160
g1008
sg90
g761
ssg180
(dp1042
g130
g927
sg110
g854
sg155
g997
sg8
g233
sg25
g349
sg30
g384
sg115
g879
sg35
g421
sg120
g892
sg125
g916
sg135
g947
sg165
g1020
sg170
g1028
sg175
g1036
sg180
(dp1043
g217
I1
ssg185
(dp1044
g217
I1
ssg190
(dp1045
g217
I1
ssg195
(dp1046
g217
I1
ssg200
(dp1047
g217
I1
ssg55
g562
sg20
g328
sg60
g590
sg40
g457
sg45
g493
sg50
g524
sg145
g974
sg65
g616
sg75
g682
sg80
g707
sg85
g742
sg95
g787
sg100
g810
sg105
g833
sg160
g1009
sg15
g270
sg70
g653
sg150
g981
sg205
(dp1048
g217
I1
ssg90
g762
sg140
g957
ssg185
(dp1049
g110
g855
sg75
g683
sg25
g340
sg100
g811
sg30
g385
sg115
g880
sg35
g422
sg120
g893
sg125
g917
sg130
g928
sg135
g948
sg165
g1021
sg170
g1029
sg175
g1037
sg180
g1044
sg190
(dp1050
g217
I1
ssg195
(dp1051
g217
I1
ssg200
(dp1052
g217
I1
ssg20
g329
sg60
g591
sg40
g460
sg45
g494
sg50
g525
sg55
g554
sg65
g624
sg70
g654
sg155
g998
sg8
g234
sg80
g708
sg85
g743
sg95
g788
sg105
g834
sg145
g975
sg15
g271
sg150
g986
sg205
(dp1053
g217
I1
ssg160
g1010
sg90
g763
sg140
g958
ssg190
(dp1054
g130
g929
sg110
g856
sg140
g959
sg25
g341
sg30
g386
sg35
g424
sg120
g894
sg125
g918
sg135
g949
sg165
g1022
sg170
g1030
sg175
g1038
sg180
g1045
sg185
g1050
sg190
(dp1055
g217
I1
ssg195
(dp1056
g217
I1
ssg200
(dp1057
g217
I1
ssg20
g330
sg40
g450
sg45
g495
sg50
g526
sg55
g555
sg60
g592
sg65
g617
sg150
g987
sg155
g999
sg8
g235
sg85
g744
sg90
g764
sg95
g789
sg100
g812
sg105
g835
sg145
g972
sg15
g272
sg70
g655
sg205
(dp1058
g217
I1
ssg75
g684
sg80
g700
sg160
g1011
sg115
g881
ssg195
(dp1059
g110
g857
sg85
g745
sg105
g836
sg30
g387
sg115
g882
sg35
g423
sg125
g905
sg130
g930
sg135
g951
sg140
g960
sg165
g1023
sg170
g1031
sg175
g1039
sg180
g1046
sg185
g1051
sg195
(dp1060
g217
I1
ssg190
g1056
sg200
(dp1061
g217
I1
ssg25
g342
sg20
g331
sg40
g451
sg45
g496
sg50
g527
sg55
g556
sg60
g593
sg65
g618
sg70
g656
sg75
g685
sg8
g236
sg95
g790
sg100
g813
sg145
g973
sg120
g895
sg160
g1012
sg15
g273
sg150
g982
sg155
g1000
sg205
(dp1062
g217
I1
ssg80
g709
sg90
g765
ssg200
(dp1063
g140
g961
sg25
g352
sg110
g858
sg30
g388
sg35
g425
sg120
g896
sg125
g906
sg130
g931
sg135
g950
sg165
g1024
sg170
g1032
sg175
g1040
sg180
g1047
sg185
g1052
sg190
g1057
sg195
g1061
sg205
(dp1064
g217
I1
ssg20
g332
sg60
g595
sg95
g791
sg40
g461
sg45
g497
sg50
g529
sg55
g566
sg65
g625
sg155
g1001
sg8
g238
sg80
g710
sg85
g746
sg90
g766
sg100
g800
sg105
g837
sg145
g976
sg15
g274
sg160
g1013
sg70
g657
sg150
g988
sg75
g686
sg115
g883
ssg205
(dp1065
g120
g901
sg140
g965
sg75
g693
sg85
g747
sg25
g360
sg165
g1025
sg30
g390
sg115
g866
sg35
g432
sg125
g919
sg130
g936
sg135
g952
sg170
g1033
sg175
g1041
sg180
g1048
sg185
g1053
sg190
g1058
sg195
g1062
sg110
g859
sg200
g1064
sg55
g567
sg20
g333
sg40
g462
sg45
g510
sg50
g542
sg145
g978
sg60
g606
sg65
g635
sg155
g1002
sg8
g252
sg95
g777
sg100
g819
sg105
g842
sg15
g293
sg70
g664
sg150
g991
sg205
(dp1066
g217
I1
ssg80
g721
sg160
g1014
sg90
g773
sssS'graph'
p1067
(dp1068
sS'adjlist_dict_factory'
p1069
g211
sS'adj'
p1070
g214
sb.