ccopy_reg
_reconstructor
p0
(cnetworkx.classes.graph
Graph
p1
c__builtin__
object
p2
Ntp3
Rp4
(dp5
S'node'
p6
(dp7
(ipubmed_timeline
Term
p8
(dp9
S'term'
p10
S'Time Factors'
p11
sS'mentions_in_year'
p12
(dp13
I1966
I3
sI1967
I9
sI1968
I15
sI1969
I14
sI1970
I25
sI1971
I26
sI1972
I35
sI1973
I36
sI1974
I27
sI1975
I26
sI1976
I24
sI1977
I20
sI1978
I16
sI1979
I25
sI1980
I30
sI1981
I23
sI1982
I11
sI1983
I19
sI1984
I22
sI1985
I36
sI1986
I11
sI1987
I12
sI1988
I17
sI1989
I14
sI1990
I16
sI1991
I11
sI1992
I5
sI1993
I9
sI1994
I10
sI1995
I7
sI1996
I12
sI1997
I5
sI1998
I4
sI1999
I13
sI2000
I7
sI2001
I9
sI2002
I15
sI2003
I6
sI2004
I10
sI2005
I13
sI2006
I14
sI2007
I10
sI2008
I16
sI2009
I21
sI2010
I13
sI2011
I9
sI2012
I21
sI2013
I20
sI2014
I14
sI2015
I12
ssb(dp14
s(ipubmed_timeline
Term
p15
(dp16
g10
S'Infections'
p17
sg12
(dp18
I1960
I1
sI1968
I1
sI1970
I2
sI1971
I1
sI1972
I4
sI1973
I3
sI1974
I1
sI1975
I1
sI1976
I4
sI1977
I2
sI1978
I2
sI1979
I2
sI1980
I15
sI1981
I5
sI1982
I6
sI1983
I4
sI1984
I8
sI1985
I12
sI1986
I9
sI1987
I6
sI1988
I14
sI1989
I19
sI1990
I31
sI1991
I22
sI1992
I46
sI1993
I33
sI1994
I39
sI1995
I33
sI1996
I39
sI1997
I30
sI1998
I24
sI1999
I22
sI2000
I8
sI2002
I20
sI2014
I2
ssb(dp19
s(ipubmed_timeline
Term
p20
(dp21
g10
S'Syphilis Serodiagnosis'
p22
sg12
(dp23
I1942
I1
sI1945
I29
sI1946
I103
sI1947
I94
sI1948
I84
sI1949
I49
sI1950
I36
sI1951
I40
sI1952
I33
sI1953
I33
sI1954
I34
sI1955
I29
sI1956
I24
sI1957
I18
sI1958
I23
sI1959
I19
sI1960
I9
sI1961
I12
sI1962
I50
sI1963
I114
sI1964
I156
sI1965
I147
sI1966
I105
sI1967
I135
sI1968
I172
sI1969
I149
sI1970
I142
sI1971
I164
sI1972
I137
sI1973
I109
sI1974
I103
sI1975
I64
sI1976
I64
sI1977
I46
sI1978
I58
sI1979
I64
sI1980
I40
sI1981
I45
sI1982
I69
sI1983
I43
sI1984
I52
sI1985
I46
sI1986
I26
sI1987
I51
sI1988
I50
sI1989
I76
sI1990
I54
sI1991
I54
sI1992
I52
sI1993
I37
sI1994
I39
sI1995
I29
sI1996
I25
sI1997
I21
sI1998
I19
sI1999
I19
sI2000
I20
sI2001
I25
sI2002
I29
sI2003
I25
sI2004
I28
sI2005
I39
sI2006
I30
sI2007
I32
sI2008
I36
sI2009
I41
sI2010
I24
sI2011
I20
sI2012
I31
sI2013
I42
sI2014
I29
sI2015
I29
ssb(dp24
s(ipubmed_timeline
Term
p25
(dp26
g10
S'Sexually Transmitted Diseases'
p27
sg12
(dp28
I1945
I2
sI1946
I5
sI1947
I13
sI1948
I3
sI1949
I30
sI1950
I22
sI1951
I4
sI1952
I5
sI1954
I6
sI1955
I2
sI1956
I1
sI1957
I3
sI1958
I4
sI1960
I9
sI1961
I2
sI1962
I2
sI1963
I8
sI1964
I23
sI1965
I6
sI1966
I2
sI1967
I1
sI1968
I3
sI1969
I1
sI1970
I5
sI1971
I5
sI1972
I7
sI1973
I5
sI1974
I5
sI1975
I6
sI1976
I6
sI1977
I3
sI1978
I6
sI1979
I4
sI1980
I10
sI1981
I5
sI1982
I9
sI1983
I1
sI1984
I7
sI1985
I12
sI1986
I12
sI1987
I7
sI1988
I14
sI1989
I24
sI1990
I37
sI1991
I22
sI1992
I49
sI1993
I33
sI1994
I44
sI1995
I37
sI1996
I35
sI1997
I27
sI1998
I22
sI1999
I16
sI2000
I6
sI2001
I2
sI2002
I32
sI2003
I1
sI2004
I2
sI2005
I2
sI2008
I1
sI2012
I2
sI2013
I1
ssb(dp29
s(ipubmed_timeline
Term
p30
(dp31
g10
S'Retrospective Studies'
p32
sg12
(dp33
I1956
I1
sI1964
I1
sI1965
I1
sI1966
I3
sI1968
I3
sI1969
I5
sI1970
I1
sI1971
I4
sI1975
I3
sI1976
I3
sI1977
I2
sI1978
I1
sI1979
I6
sI1980
I4
sI1981
I4
sI1982
I2
sI1983
I1
sI1984
I5
sI1985
I3
sI1986
I2
sI1987
I7
sI1988
I6
sI1989
I10
sI1990
I10
sI1991
I16
sI1992
I17
sI1993
I14
sI1994
I15
sI1995
I19
sI1996
I10
sI1997
I17
sI1998
I17
sI1999
I21
sI2000
I13
sI2001
I25
sI2002
I21
sI2003
I23
sI2004
I26
sI2005
I28
sI2006
I25
sI2007
I25
sI2008
I30
sI2009
I33
sI2010
I46
sI2011
I32
sI2012
I31
sI2013
I67
sI2014
I56
sI2015
I43
ssb(dp34
s(ipubmed_timeline
Term
p35
(dp36
g10
S'Syphilis/epidemiology'
p37
sg12
(dp38
I1948
I1
sI1950
I4
sI1951
I4
sI1952
I6
sI1953
I12
sI1954
I13
sI1955
I17
sI1956
I12
sI1957
I17
sI1958
I12
sI1959
I4
sI1960
I10
sI1961
I7
sI1962
I4
sI1964
I1
sI1965
I16
sI1966
I25
sI1967
I24
sI1968
I25
sI1969
I23
sI1970
I20
sI1971
I28
sI1972
I23
sI1973
I20
sI1974
I21
sI1975
I18
sI1976
I16
sI1977
I15
sI1978
I13
sI1979
I14
sI1980
I23
sI1981
I21
sI1982
I18
sI1983
I14
sI1984
I17
sI1985
I24
sI1986
I17
sI1987
I16
sI1988
I23
sI1989
I18
sI1990
I27
sI1991
I31
sI1992
I13
sI1993
I19
sI1994
I19
sI1995
I22
sI1996
I17
sI1997
I21
sI1998
I18
sI1999
I31
sI2000
I20
sI2001
I35
sI2002
I33
sI2003
I32
sI2004
I27
sI2005
I36
sI2006
I27
sI2007
I30
sI2008
I31
sI2009
I35
sI2010
I35
sI2011
I35
sI2012
I55
sI2013
I53
sI2014
I64
sI2015
I47
ssb(dp39
s(ipubmed_timeline
Term
p40
(dp41
g10
S'Sexual Behavior'
p42
sg12
(dp43
I1949
I1
sI1950
I1
sI1952
I1
sI1953
I1
sI1960
I1
sI1963
I3
sI1965
I2
sI1966
I2
sI1967
I1
sI1968
I1
sI1969
I3
sI1970
I4
sI1971
I5
sI1972
I2
sI1973
I3
sI1974
I10
sI1975
I2
sI1976
I6
sI1977
I4
sI1978
I3
sI1979
I4
sI1980
I2
sI1981
I7
sI1982
I13
sI1983
I9
sI1984
I11
sI1985
I11
sI1986
I1
sI1987
I9
sI1988
I21
sI1989
I14
sI1990
I25
sI1991
I15
sI1992
I25
sI1993
I25
sI1994
I33
sI1995
I20
sI1996
I23
sI1997
I21
sI1998
I21
sI1999
I15
sI2000
I20
sI2001
I18
sI2002
I32
sI2003
I28
sI2004
I24
sI2005
I32
sI2006
I32
sI2007
I27
sI2008
I34
sI2009
I29
sI2010
I25
sI2011
I30
sI2012
I29
sI2013
I43
sI2014
I44
sI2015
I36
ssb(dp44
s(ipubmed_timeline
Term
p45
(dp46
g10
S'Pregnancy'
p47
sg12
(dp48
I1945
I4
sI1946
I18
sI1947
I35
sI1948
I14
sI1949
I24
sI1950
I54
sI1951
I44
sI1952
I43
sI1953
I34
sI1954
I23
sI1955
I19
sI1956
I23
sI1957
I13
sI1958
I9
sI1959
I10
sI1960
I5
sI1961
I6
sI1962
I7
sI1963
I23
sI1964
I28
sI1965
I16
sI1966
I31
sI1967
I15
sI1968
I28
sI1969
I38
sI1970
I26
sI1971
I33
sI1972
I40
sI1973
I43
sI1974
I32
sI1975
I44
sI1976
I41
sI1977
I25
sI1978
I27
sI1979
I35
sI1980
I19
sI1981
I30
sI1982
I35
sI1983
I28
sI1984
I36
sI1985
I36
sI1986
I32
sI1987
I28
sI1988
I29
sI1989
I48
sI1990
I57
sI1991
I59
sI1992
I52
sI1993
I61
sI1994
I71
sI1995
I65
sI1996
I43
sI1997
I34
sI1998
I53
sI1999
I45
sI2000
I42
sI2001
I63
sI2002
I47
sI2003
I38
sI2004
I63
sI2005
I46
sI2006
I57
sI2007
I76
sI2008
I48
sI2009
I50
sI2010
I58
sI2011
I58
sI2012
I63
sI2013
I73
sI2014
I66
sI2015
I75
ssb(dp49
s(ipubmed_timeline
Term
p50
(dp51
g10
S'Diseases'
p52
sg12
(dp53
I1960
I1
sI1967
I1
sI1968
I1
sI1970
I2
sI1971
I1
sI1972
I4
sI1973
I3
sI1974
I1
sI1975
I1
sI1976
I4
sI1977
I3
sI1978
I3
sI1979
I2
sI1980
I15
sI1981
I8
sI1982
I7
sI1983
I5
sI1984
I8
sI1985
I12
sI1986
I10
sI1987
I6
sI1988
I17
sI1989
I21
sI1990
I32
sI1991
I27
sI1992
I57
sI1993
I41
sI1994
I46
sI1995
I40
sI1996
I46
sI1997
I37
sI1998
I28
sI1999
I22
sI2000
I10
sI2002
I23
ssb(dp54
s(ipubmed_timeline
Term
p55
(dp56
g10
S'Reproductive Tract Infections'
p57
sg12
(dp58
I1960
I1
sI1968
I1
sI1970
I2
sI1972
I4
sI1973
I2
sI1974
I1
sI1975
I1
sI1976
I4
sI1977
I2
sI1978
I2
sI1979
I2
sI1980
I13
sI1981
I4
sI1982
I7
sI1983
I3
sI1984
I8
sI1985
I11
sI1986
I8
sI1987
I6
sI1988
I13
sI1989
I18
sI1990
I30
sI1991
I21
sI1992
I46
sI1993
I31
sI1994
I39
sI1995
I31
sI1996
I37
sI1997
I29
sI1998
I25
sI1999
I22
sI2000
I7
sI2002
I20
ssb(dp59
s(ipubmed_timeline
Term
p60
(dp61
g10
S'Treponema pallidum/isolation & purification'
p62
sg12
(dp63
I1965
I1
sI1967
I8
sI1968
I7
sI1969
I21
sI1970
I13
sI1971
I10
sI1972
I15
sI1973
I6
sI1974
I8
sI1975
I10
sI1976
I1
sI1977
I4
sI1978
I3
sI1979
I4
sI1980
I3
sI1981
I3
sI1982
I4
sI1983
I8
sI1984
I2
sI1985
I2
sI1986
I4
sI1987
I4
sI1988
I7
sI1989
I6
sI1990
I3
sI1991
I10
sI1992
I4
sI1993
I1
sI1994
I2
sI1995
I2
sI1996
I5
sI1997
I7
sI1998
I6
sI1999
I6
sI2000
I9
sI2001
I6
sI2002
I12
sI2003
I10
sI2004
I11
sI2005
I8
sI2006
I14
sI2007
I12
sI2008
I22
sI2009
I14
sI2010
I23
sI2011
I27
sI2012
I26
sI2013
I38
sI2014
I26
sI2015
I22
ssb(dp64
s(ipubmed_timeline
Term
p65
(dp66
g10
S'Anti-Bacterial Agents/therapeutic use'
p67
sg12
(dp68
I1952
I1
sI1953
I4
sI1954
I4
sI1955
I4
sI1957
I4
sI1958
I2
sI1959
I1
sI1965
I3
sI1966
I8
sI1967
I3
sI1968
I8
sI1969
I11
sI1970
I7
sI1971
I11
sI1972
I6
sI1973
I6
sI1974
I8
sI1975
I8
sI1976
I10
sI1978
I4
sI1979
I8
sI1980
I4
sI1981
I4
sI1982
I4
sI1983
I5
sI1984
I11
sI1985
I4
sI1986
I5
sI1987
I7
sI1988
I6
sI1989
I3
sI1990
I6
sI1991
I7
sI1992
I3
sI1993
I6
sI1994
I5
sI1995
I3
sI1996
I7
sI1997
I6
sI1998
I3
sI1999
I5
sI2000
I5
sI2001
I4
sI2002
I10
sI2003
I10
sI2004
I26
sI2005
I24
sI2006
I34
sI2007
I24
sI2008
I30
sI2009
I42
sI2010
I36
sI2011
I37
sI2012
I41
sI2013
I57
sI2014
I49
sI2015
I46
ssb(dp69
s(ipubmed_timeline
Term
p70
(dp71
g10
S'Follow-Up Studies'
p72
sg12
(dp73
I1945
I2
sI1946
I1
sI1947
I1
sI1948
I2
sI1949
I4
sI1950
I9
sI1951
I8
sI1952
I4
sI1953
I1
sI1954
I5
sI1955
I2
sI1956
I2
sI1957
I3
sI1959
I1
sI1960
I1
sI1962
I1
sI1964
I5
sI1965
I3
sI1966
I7
sI1967
I9
sI1968
I6
sI1969
I6
sI1970
I7
sI1971
I8
sI1972
I13
sI1973
I8
sI1974
I13
sI1975
I8
sI1976
I14
sI1977
I5
sI1978
I3
sI1979
I7
sI1980
I6
sI1981
I6
sI1982
I5
sI1983
I9
sI1984
I11
sI1985
I4
sI1986
I4
sI1987
I8
sI1988
I11
sI1989
I8
sI1990
I4
sI1991
I8
sI1992
I10
sI1993
I7
sI1994
I12
sI1995
I7
sI1996
I6
sI1997
I13
sI1998
I11
sI1999
I4
sI2000
I5
sI2001
I5
sI2002
I4
sI2003
I16
sI2004
I8
sI2005
I16
sI2006
I14
sI2007
I4
sI2008
I8
sI2009
I10
sI2010
I12
sI2011
I11
sI2012
I9
sI2013
I18
sI2014
I22
sI2015
I15
ssb(dp74
s(ipubmed_timeline
Term
p75
(dp76
g10
S'Prospective Studies'
p77
sg12
(dp78
I1954
I2
sI1970
I1
sI1971
I1
sI1973
I1
sI1975
I2
sI1976
I1
sI1978
I2
sI1981
I2
sI1984
I3
sI1985
I2
sI1986
I2
sI1987
I6
sI1988
I6
sI1989
I6
sI1990
I11
sI1991
I9
sI1992
I12
sI1993
I5
sI1994
I9
sI1995
I13
sI1996
I16
sI1997
I9
sI1998
I14
sI1999
I9
sI2000
I11
sI2001
I17
sI2002
I11
sI2003
I12
sI2004
I8
sI2005
I12
sI2006
I15
sI2007
I10
sI2008
I4
sI2009
I14
sI2010
I16
sI2011
I20
sI2012
I17
sI2013
I10
sI2014
I21
sI2015
I17
ssb(dp79
s(ipubmed_timeline
Term
p80
(dp81
g10
S'Treatment Outcome'
p82
sg12
(dp83
I1947
I1
sI1948
I2
sI1992
I3
sI1993
I2
sI1994
I4
sI1995
I5
sI1996
I9
sI1997
I7
sI1998
I5
sI1999
I5
sI2000
I6
sI2001
I11
sI2002
I11
sI2003
I17
sI2004
I20
sI2005
I18
sI2006
I26
sI2007
I12
sI2008
I21
sI2009
I21
sI2010
I23
sI2011
I31
sI2012
I34
sI2013
I31
sI2014
I37
sI2015
I33
ssb(dp84
s(ipubmed_timeline
Term
p85
(dp86
g10
S'History, 19th Century'
p87
sg12
(dp88
I1950
I2
sI1951
I1
sI1952
I3
sI1953
I3
sI1954
I2
sI1955
I1
sI1956
I2
sI1957
I5
sI1959
I1
sI1963
I3
sI1964
I9
sI1965
I3
sI1966
I8
sI1967
I5
sI1968
I3
sI1969
I14
sI1970
I8
sI1971
I8
sI1972
I14
sI1973
I9
sI1974
I10
sI1975
I15
sI1976
I6
sI1977
I11
sI1978
I10
sI1979
I7
sI1980
I9
sI1981
I8
sI1982
I11
sI1983
I7
sI1984
I7
sI1985
I5
sI1986
I10
sI1987
I2
sI1988
I9
sI1989
I5
sI1990
I12
sI1991
I13
sI1992
I11
sI1993
I15
sI1994
I23
sI1995
I21
sI1996
I16
sI1997
I9
sI1998
I6
sI1999
I11
sI2000
I14
sI2001
I19
sI2002
I11
sI2003
I19
sI2004
I17
sI2005
I14
sI2006
I22
sI2007
I19
sI2008
I33
sI2009
I25
sI2010
I22
sI2011
I18
sI2012
I14
sI2013
I20
sI2014
I14
sI2015
I19
ssb(dp89
s(ipubmed_timeline
Term
p90
(dp91
g10
S'History, 20th Century'
p92
sg12
(dp93
I1950
I1
sI1951
I1
sI1952
I3
sI1953
I2
sI1954
I2
sI1955
I1
sI1956
I1
sI1957
I4
sI1963
I1
sI1964
I6
sI1965
I3
sI1966
I9
sI1967
I11
sI1968
I7
sI1969
I8
sI1970
I7
sI1971
I8
sI1972
I8
sI1973
I9
sI1974
I12
sI1975
I13
sI1976
I3
sI1977
I12
sI1978
I10
sI1979
I10
sI1980
I10
sI1981
I8
sI1982
I13
sI1983
I11
sI1984
I11
sI1985
I8
sI1986
I7
sI1987
I6
sI1988
I13
sI1989
I9
sI1990
I9
sI1991
I13
sI1992
I13
sI1993
I20
sI1994
I19
sI1995
I24
sI1996
I16
sI1997
I14
sI1998
I14
sI1999
I15
sI2000
I21
sI2001
I25
sI2002
I19
sI2003
I27
sI2004
I23
sI2005
I17
sI2006
I29
sI2007
I19
sI2008
I29
sI2009
I29
sI2010
I30
sI2011
I41
sI2012
I25
sI2013
I31
sI2014
I30
sI2015
I31
ssb(dp94
s(ipubmed_timeline
Term
p95
(dp96
g10
S'Socioeconomic Factors'
p97
sg12
(dp98
I1949
I1
sI1967
I2
sI1968
I1
sI1969
I9
sI1970
I3
sI1971
I4
sI1972
I7
sI1973
I8
sI1974
I6
sI1975
I4
sI1976
I2
sI1977
I2
sI1978
I2
sI1979
I2
sI1980
I3
sI1981
I2
sI1982
I4
sI1983
I2
sI1984
I5
sI1985
I8
sI1987
I5
sI1988
I2
sI1989
I6
sI1990
I4
sI1991
I10
sI1992
I15
sI1993
I12
sI1994
I16
sI1995
I10
sI1996
I10
sI1997
I12
sI1998
I8
sI1999
I11
sI2000
I6
sI2001
I8
sI2002
I10
sI2003
I12
sI2004
I12
sI2005
I13
sI2006
I5
sI2007
I11
sI2008
I20
sI2009
I19
sI2010
I11
sI2011
I20
sI2012
I20
sI2013
I29
sI2014
I34
sI2015
I13
ssb(dp99
s(ipubmed_timeline
Term
p100
(dp101
g10
S'Animals'
p102
sg12
(dp103
I1945
I3
sI1946
I17
sI1947
I15
sI1948
I15
sI1949
I6
sI1950
I27
sI1951
I19
sI1952
I12
sI1953
I13
sI1954
I17
sI1955
I11
sI1956
I16
sI1957
I11
sI1958
I7
sI1959
I7
sI1960
I5
sI1961
I7
sI1962
I3
sI1963
I18
sI1964
I23
sI1965
I22
sI1966
I25
sI1967
I35
sI1968
I40
sI1969
I41
sI1970
I28
sI1971
I38
sI1972
I49
sI1973
I29
sI1974
I28
sI1975
I26
sI1976
I26
sI1977
I35
sI1978
I19
sI1979
I30
sI1980
I33
sI1981
I34
sI1982
I31
sI1983
I35
sI1984
I34
sI1985
I44
sI1986
I26
sI1987
I28
sI1988
I29
sI1989
I22
sI1990
I21
sI1991
I37
sI1992
I30
sI1993
I22
sI1994
I18
sI1995
I17
sI1996
I12
sI1997
I15
sI1998
I15
sI1999
I19
sI2000
I17
sI2001
I21
sI2002
I12
sI2003
I13
sI2004
I22
sI2005
I21
sI2006
I20
sI2007
I16
sI2008
I19
sI2009
I14
sI2010
I16
sI2011
I13
sI2012
I9
sI2013
I22
sI2014
I11
sI2015
I16
ssb(dp104
s(ipubmed_timeline
Term
p105
(dp106
g10
S'Syphilis/diagnosis'
p107
sg12
(dp108
I1945
I4
sI1946
I9
sI1947
I11
sI1948
I39
sI1949
I11
sI1950
I1
sI1951
I76
sI1952
I189
sI1953
I165
sI1954
I143
sI1955
I144
sI1956
I151
sI1957
I101
sI1958
I110
sI1959
I56
sI1960
I63
sI1961
I53
sI1962
I33
sI1964
I1
sI1965
I10
sI1966
I21
sI1967
I24
sI1968
I42
sI1969
I26
sI1970
I26
sI1971
I38
sI1972
I37
sI1973
I51
sI1974
I32
sI1975
I25
sI1976
I35
sI1977
I22
sI1978
I25
sI1979
I23
sI1980
I22
sI1981
I24
sI1982
I20
sI1983
I26
sI1984
I17
sI1985
I20
sI1986
I27
sI1987
I15
sI1988
I8
sI1989
I15
sI1990
I16
sI1991
I8
sI1992
I15
sI1993
I10
sI1994
I13
sI1995
I12
sI1996
I9
sI1997
I12
sI1998
I8
sI1999
I9
sI2000
I10
sI2001
I8
sI2002
I7
sI2003
I10
sI2004
I8
sI2005
I12
sI2006
I24
sI2007
I27
sI2008
I31
sI2009
I30
sI2010
I30
sI2011
I41
sI2012
I22
sI2013
I29
sI2014
I31
sI2015
I37
ssb(dp109
s(ipubmed_timeline
Term
p110
(dp111
g10
S'Serologic Tests'
p112
sg12
(dp113
I1945
I2
sI1946
I22
sI1947
I35
sI1948
I26
sI1949
I12
sI1950
I38
sI1951
I46
sI1952
I34
sI1953
I29
sI1954
I37
sI1955
I25
sI1956
I16
sI1957
I24
sI1958
I17
sI1959
I16
sI1960
I22
sI1961
I24
sI1962
I18
sI1963
I17
sI1964
I31
sI1965
I14
sI1966
I6
sI1967
I3
sI1968
I5
sI1969
I5
sI1970
I7
sI1971
I14
sI1972
I9
sI1973
I6
sI1974
I10
sI1975
I1
sI1977
I1
sI1978
I2
sI1979
I1
sI1980
I2
sI1981
I2
sI1982
I2
sI1983
I2
sI1984
I1
sI1985
I8
sI1986
I6
sI1987
I7
sI1988
I5
sI1989
I13
sI1990
I4
sI1991
I3
sI1992
I7
sI1993
I4
sI1994
I3
sI1995
I3
sI1996
I4
sI1997
I3
sI1998
I11
sI1999
I5
sI2000
I2
sI2001
I8
sI2002
I4
sI2003
I4
sI2004
I5
sI2005
I4
sI2006
I1
sI2007
I2
sI2008
I6
sI2009
I4
sI2010
I4
sI2011
I6
sI2012
I6
sI2013
I14
sI2014
I6
sI2015
I6
ssb(dp114
s(ipubmed_timeline
Term
p115
(dp116
g10
S'Mass Screening'
p117
sg12
(dp118
I1954
I1
sI1957
I1
sI1964
I7
sI1965
I1
sI1966
I7
sI1967
I7
sI1968
I4
sI1969
I6
sI1970
I10
sI1971
I3
sI1972
I9
sI1973
I9
sI1974
I5
sI1975
I4
sI1976
I4
sI1977
I4
sI1978
I1
sI1979
I7
sI1980
I3
sI1981
I2
sI1982
I9
sI1983
I3
sI1984
I2
sI1985
I1
sI1986
I6
sI1987
I3
sI1988
I4
sI1989
I10
sI1990
I6
sI1991
I11
sI1992
I14
sI1993
I11
sI1994
I10
sI1995
I14
sI1996
I11
sI1997
I8
sI1998
I10
sI1999
I6
sI2000
I6
sI2001
I18
sI2002
I12
sI2003
I8
sI2004
I8
sI2005
I13
sI2006
I13
sI2007
I16
sI2008
I8
sI2009
I13
sI2010
I11
sI2011
I12
sI2012
I18
sI2013
I18
sI2014
I20
sI2015
I26
ssb(dp119
s(ipubmed_timeline
Term
p120
(dp121
g10
S'Fluorescent Antibody Technique'
p122
sg12
(dp123
I1959
I1
sI1960
I2
sI1961
I6
sI1962
I9
sI1963
I16
sI1964
I43
sI1965
I24
sI1966
I25
sI1967
I44
sI1968
I58
sI1969
I56
sI1970
I52
sI1971
I55
sI1972
I64
sI1973
I43
sI1974
I37
sI1975
I31
sI1976
I25
sI1977
I23
sI1978
I28
sI1979
I22
sI1980
I22
sI1981
I22
sI1982
I22
sI1983
I25
sI1984
I18
sI1985
I25
sI1986
I17
sI1987
I11
sI1988
I7
sI1989
I12
sI1990
I12
sI1991
I10
sI1992
I5
sI1993
I7
sI1994
I6
sI1995
I5
sI1997
I2
sI1999
I5
sI2000
I1
sI2005
I1
sI2006
I1
sI2007
I1
sI2008
I1
sI2010
I1
sI2011
I1
sI2012
I1
sI2013
I2
sI2014
I1
sI2015
I1
ssb(dp124
s(ipubmed_timeline
Term
p125
(dp126
g10
S'Penicillins/therapeutic use'
p127
sg12
(dp128
I1948
I3
sI1950
I4
sI1951
I56
sI1952
I107
sI1953
I94
sI1954
I67
sI1955
I40
sI1956
I35
sI1957
I39
sI1958
I22
sI1959
I9
sI1965
I26
sI1966
I22
sI1967
I28
sI1968
I27
sI1969
I35
sI1970
I28
sI1971
I39
sI1972
I25
sI1973
I38
sI1974
I20
sI1975
I16
sI1976
I22
sI1977
I12
sI1978
I14
sI1979
I15
sI1980
I6
sI1981
I15
sI1982
I13
sI1983
I10
sI1984
I11
sI1985
I13
sI1986
I6
sI1987
I13
sI1988
I14
sI1989
I8
sI1990
I15
sI1991
I11
sI1992
I10
sI1993
I6
sI1994
I10
sI1995
I14
sI1996
I13
sI1997
I14
sI1998
I15
sI1999
I16
sI2000
I13
sI2001
I14
sI2002
I20
sI2003
I15
sI2004
I9
sI2005
I9
sI2006
I18
sI2007
I11
sI2008
I11
sI2009
I8
sI2010
I11
sI2011
I14
sI2012
I15
sI2013
I17
sI2014
I11
sI2015
I6
ssb(dp129
s(ipubmed_timeline
Term
p130
(dp131
g10
S'Developing Countries'
p132
sg12
(dp133
I1952
I1
sI1964
I1
sI1967
I1
sI1972
I2
sI1973
I3
sI1974
I1
sI1975
I1
sI1976
I7
sI1977
I3
sI1980
I10
sI1981
I4
sI1982
I5
sI1983
I9
sI1984
I13
sI1985
I13
sI1986
I8
sI1987
I9
sI1988
I19
sI1989
I22
sI1990
I44
sI1991
I22
sI1992
I71
sI1993
I51
sI1994
I46
sI1995
I52
sI1996
I49
sI1997
I44
sI1998
I31
sI1999
I22
sI2000
I11
sI2001
I11
sI2002
I20
sI2003
I2
sI2004
I3
sI2005
I4
sI2006
I4
sI2007
I3
sI2008
I2
sI2009
I4
sI2010
I5
sI2011
I5
sI2012
I3
sI2013
I5
sI2014
I5
sI2015
I2
ssb(dp134
s(ipubmed_timeline
Term
p135
(dp136
g10
S'Treponema pallidum'
p137
sg12
(dp138
I1946
I4
sI1947
I3
sI1948
I6
sI1949
I3
sI1950
I9
sI1951
I12
sI1952
I7
sI1953
I18
sI1954
I15
sI1955
I22
sI1956
I22
sI1957
I26
sI1958
I13
sI1959
I14
sI1960
I5
sI1961
I9
sI1962
I5
sI1963
I11
sI1964
I17
sI1965
I6
sI1966
I2
sI1967
I12
sI1968
I5
sI1969
I7
sI1970
I8
sI1971
I8
sI1972
I5
sI1973
I5
sI1974
I4
sI1975
I3
sI1976
I3
sI1977
I6
sI1978
I5
sI1979
I3
sI1980
I2
sI1981
I1
sI1982
I1
sI1983
I1
sI1984
I3
sI1985
I3
sI1986
I1
sI1990
I1
sI1991
I2
sI1992
I1
sI1993
I4
sI1994
I2
sI1995
I3
sI1996
I1
sI1998
I1
sI1999
I1
sI2000
I3
sI2001
I1
sI2002
I5
sI2003
I3
sI2004
I4
sI2005
I7
sI2006
I5
sI2007
I7
sI2008
I6
sI2009
I12
sI2010
I6
sI2011
I9
sI2012
I10
sI2013
I39
sI2014
I41
sI2015
I35
ssb(dp139
s(ipubmed_timeline
Term
p140
(dp141
g10
S'Diagnosis, Differential'
p142
sg12
(dp143
I1947
I1
sI1948
I3
sI1949
I2
sI1950
I4
sI1951
I2
sI1952
I6
sI1953
I10
sI1954
I16
sI1955
I7
sI1956
I16
sI1957
I4
sI1958
I8
sI1959
I2
sI1960
I2
sI1962
I2
sI1963
I28
sI1964
I58
sI1965
I22
sI1966
I30
sI1967
I36
sI1968
I46
sI1969
I37
sI1970
I31
sI1971
I48
sI1972
I42
sI1973
I35
sI1974
I32
sI1975
I30
sI1976
I25
sI1977
I23
sI1978
I16
sI1979
I35
sI1980
I32
sI1981
I34
sI1982
I33
sI1983
I24
sI1984
I33
sI1985
I26
sI1986
I24
sI1987
I28
sI1988
I25
sI1989
I24
sI1990
I23
sI1991
I32
sI1992
I25
sI1993
I35
sI1994
I26
sI1995
I32
sI1996
I30
sI1997
I14
sI1998
I29
sI1999
I27
sI2000
I31
sI2001
I29
sI2002
I35
sI2003
I31
sI2004
I52
sI2005
I39
sI2006
I48
sI2007
I27
sI2008
I48
sI2009
I42
sI2010
I48
sI2011
I49
sI2012
I51
sI2013
I64
sI2014
I48
sI2015
I51
ssb(dp144
s(ipubmed_timeline
Term
p145
(dp146
g10
S'Age Factors'
p147
sg12
(dp148
I1960
I2
sI1966
I2
sI1967
I12
sI1968
I11
sI1969
I26
sI1970
I27
sI1971
I24
sI1972
I26
sI1973
I26
sI1974
I20
sI1975
I18
sI1976
I8
sI1977
I6
sI1978
I5
sI1979
I8
sI1980
I10
sI1981
I8
sI1982
I3
sI1983
I14
sI1984
I8
sI1985
I11
sI1986
I5
sI1987
I6
sI1988
I15
sI1989
I11
sI1990
I28
sI1991
I16
sI1992
I30
sI1993
I20
sI1994
I21
sI1995
I11
sI1996
I9
sI1997
I14
sI1998
I7
sI1999
I9
sI2000
I7
sI2001
I10
sI2002
I14
sI2003
I11
sI2004
I8
sI2005
I5
sI2006
I7
sI2007
I9
sI2008
I10
sI2009
I7
sI2010
I13
sI2011
I12
sI2012
I14
sI2013
I8
sI2014
I20
sI2015
I7
ssb(dp149
s(ipubmed_timeline
Term
p150
(dp151
g10
VAGE GROUPS
p152
sg12
(dp153
I1945
I8
sI1946
I15
sI1947
I30
sI1948
I15
sI1949
I14
sI1950
I22
sI1951
I29
sI1952
I34
sI1953
I36
sI1954
I25
sI1955
I10
sI1956
I29
sI1957
I33
sI1958
I18
sI1959
I17
sI1960
I19
sI1961
I11
sI1962
I31
sI1963
I74
sI1964
I138
sI1965
I253
sI1966
I380
sI1967
I487
sI1968
I439
sI1969
I492
sI1970
I510
sI1971
I503
sI1972
I495
sI1973
I404
sI1974
I448
sI1975
I392
sI1976
I397
sI1977
I376
sI1978
I298
sI1979
I353
sI1980
I390
sI1981
I371
sI1982
I408
sI1983
I363
sI1984
I379
sI1985
I398
sI1986
I303
sI1987
I330
sI1988
I395
sI1989
I381
sI1990
I491
sI1991
I421
sI1992
I442
sI1993
I494
sI1994
I486
sI1995
I427
sI1996
I349
sI1997
I363
sI1998
I379
sI1999
I441
sI2000
I398
sI2001
I441
sI2002
I458
sI2003
I491
sI2004
I427
sI2005
I542
sI2006
I558
sI2007
I562
sI2008
I684
sI2009
I809
sI2010
I800
sI2011
I860
sI2012
I980
sI2013
I939
sI2014
I990
sI2015
I848
ssb(dp154
s(ipubmed_timeline
Term
p155
(dp156
g10
S'Sensitivity and Specificity'
p157
sg12
(dp158
I1948
I1
sI1949
I1
sI1950
I3
sI1951
I6
sI1952
I1
sI1953
I2
sI1954
I4
sI1955
I4
sI1957
I2
sI1958
I1
sI1959
I1
sI1960
I1
sI1961
I2
sI1963
I2
sI1965
I2
sI1989
I4
sI1990
I8
sI1991
I11
sI1992
I8
sI1993
I12
sI1994
I17
sI1995
I9
sI1996
I15
sI1997
I11
sI1998
I21
sI1999
I18
sI2000
I22
sI2001
I17
sI2002
I11
sI2003
I15
sI2004
I16
sI2005
I15
sI2006
I24
sI2007
I24
sI2008
I20
sI2009
I29
sI2010
I23
sI2011
I23
sI2012
I22
sI2013
I30
sI2014
I22
sI2015
I25
ssb(dp159
s(ipubmed_timeline
Term
p160
(dp161
g10
S'Treponema pallidum/immunology'
p162
sg12
(dp163
I1961
I1
sI1965
I1
sI1966
I5
sI1967
I8
sI1968
I23
sI1969
I12
sI1970
I11
sI1971
I16
sI1972
I28
sI1973
I31
sI1974
I31
sI1975
I36
sI1976
I28
sI1977
I27
sI1978
I27
sI1979
I25
sI1980
I37
sI1981
I21
sI1982
I38
sI1983
I38
sI1984
I36
sI1985
I30
sI1986
I29
sI1987
I16
sI1988
I22
sI1989
I24
sI1990
I26
sI1991
I15
sI1992
I17
sI1993
I17
sI1994
I12
sI1995
I15
sI1996
I8
sI1997
I5
sI1998
I13
sI1999
I11
sI2000
I17
sI2001
I9
sI2002
I10
sI2003
I1
sI2004
I8
sI2005
I10
sI2006
I19
sI2007
I13
sI2008
I17
sI2009
I18
sI2010
I16
sI2011
I19
sI2012
I15
sI2013
I26
sI2014
I19
sI2015
I18
ssb(dp164
s(ipubmed_timeline
Term
p165
(dp166
g10
S'Cross-Sectional Studies'
p167
sg12
(dp168
I1964
I1
sI1982
I1
sI1985
I1
sI1986
I2
sI1987
I1
sI1988
I4
sI1989
I14
sI1990
I3
sI1991
I11
sI1992
I8
sI1993
I11
sI1994
I12
sI1995
I23
sI1996
I14
sI1997
I18
sI1998
I18
sI1999
I14
sI2000
I19
sI2001
I19
sI2002
I22
sI2003
I35
sI2004
I18
sI2005
I25
sI2006
I29
sI2007
I38
sI2008
I39
sI2009
I46
sI2010
I42
sI2011
I46
sI2012
I64
sI2013
I65
sI2014
I93
sI2015
I55
ssb(dp169
s(ipubmed_timeline
Term
p170
(dp171
g10
S'Prevalence'
p172
sg12
(dp173
I1948
I1
sI1949
I3
sI1951
I1
sI1953
I1
sI1954
I3
sI1956
I1
sI1960
I1
sI1961
I1
sI1962
I1
sI1963
I1
sI1964
I1
sI1972
I1
sI1976
I1
sI1980
I4
sI1984
I5
sI1985
I4
sI1986
I3
sI1987
I4
sI1988
I2
sI1989
I11
sI1990
I38
sI1991
I40
sI1992
I49
sI1993
I50
sI1994
I63
sI1995
I54
sI1996
I43
sI1997
I52
sI1998
I59
sI1999
I51
sI2000
I44
sI2001
I60
sI2002
I67
sI2003
I64
sI2004
I42
sI2005
I54
sI2006
I62
sI2007
I60
sI2008
I72
sI2009
I77
sI2010
I78
sI2011
I82
sI2012
I112
sI2013
I117
sI2014
I129
sI2015
I99
ssb(dp174
s(ipubmed_timeline
Term
p175
(dp176
g10
S'Risk Factors'
p177
sg12
(dp178
I1978
I1
sI1986
I1
sI1987
I6
sI1988
I18
sI1989
I26
sI1990
I41
sI1991
I51
sI1992
I60
sI1993
I56
sI1994
I77
sI1995
I54
sI1996
I60
sI1997
I46
sI1998
I44
sI1999
I45
sI2000
I46
sI2001
I66
sI2002
I54
sI2003
I64
sI2004
I48
sI2005
I71
sI2006
I67
sI2007
I55
sI2008
I61
sI2009
I69
sI2010
I84
sI2011
I59
sI2012
I85
sI2013
I80
sI2014
I107
sI2015
I78
ssb(dp179
s(ipubmed_timeline
Term
p180
(dp181
g10
S'Surveys and Questionnaires'
p182
sg12
(dp183
I1950
I2
sI1952
I2
sI1967
I1
sI1971
I1
sI1972
I1
sI1973
I2
sI1974
I4
sI1977
I2
sI1978
I1
sI1979
I1
sI1981
I2
sI1984
I3
sI1985
I1
sI1986
I2
sI1988
I2
sI1989
I2
sI1990
I1
sI1991
I3
sI1992
I5
sI1993
I5
sI1994
I6
sI1995
I9
sI1996
I15
sI1997
I10
sI1998
I2
sI1999
I9
sI2000
I11
sI2001
I18
sI2002
I7
sI2003
I26
sI2004
I16
sI2005
I16
sI2006
I22
sI2007
I15
sI2008
I23
sI2009
I20
sI2010
I27
sI2011
I19
sI2012
I47
sI2013
I41
sI2014
I38
sI2015
I30
ssb(dp184
s(ipubmed_timeline
Term
p185
(dp186
g10
VSYPHILIS
p187
sg12
(dp188
I1942
I1
sI1945
I157
sI1946
I400
sI1947
I498
sI1948
I436
sI1949
I631
sI1950
I1495
sI1951
I1120
sI1952
I507
sI1953
I360
sI1954
I304
sI1955
I236
sI1956
I207
sI1957
I201
sI1958
I163
sI1959
I133
sI1960
I125
sI1961
I115
sI1962
I234
sI1963
I675
sI1964
I928
sI1965
I325
sI1966
I35
sI1967
I37
sI1968
I15
sI1969
I27
sI1970
I24
sI1971
I29
sI1972
I25
sI1973
I25
sI1974
I19
sI1975
I9
sI1976
I14
sI1977
I15
sI1978
I8
sI1979
I9
sI1980
I4
sI1981
I4
sI1982
I5
sI1983
I3
sI1984
I6
sI1985
I4
sI1986
I8
sI1987
I9
sI1988
I12
sI1989
I24
sI1990
I31
sI1991
I19
sI1992
I35
sI1993
I19
sI1994
I20
sI1995
I19
sI1996
I12
sI1997
I20
sI1998
I14
sI1999
I14
sI2000
I6
sI2001
I9
sI2002
I10
sI2003
I9
sI2004
I3
sI2005
I2
sI2006
I3
sI2007
I8
sI2008
I6
sI2009
I10
sI2010
I16
sI2011
I12
sI2012
I22
sI2013
I113
sI2014
I118
sI2015
I133
ssb(dp189
s(ipubmed_timeline
Term
p190
(dp191
g10
S'Syphilis/complications'
p192
sg12
(dp193
I1945
I1
sI1946
I4
sI1947
I13
sI1948
I12
sI1949
I12
sI1951
I7
sI1952
I11
sI1953
I31
sI1954
I19
sI1955
I20
sI1956
I22
sI1957
I11
sI1958
I13
sI1959
I11
sI1960
I11
sI1961
I9
sI1962
I5
sI1965
I13
sI1966
I31
sI1967
I30
sI1968
I29
sI1969
I45
sI1970
I43
sI1971
I29
sI1972
I32
sI1973
I39
sI1974
I31
sI1975
I32
sI1976
I24
sI1977
I26
sI1978
I26
sI1979
I16
sI1980
I21
sI1981
I14
sI1982
I21
sI1983
I21
sI1984
I16
sI1985
I13
sI1986
I20
sI1987
I20
sI1988
I14
sI1989
I15
sI1990
I20
sI1991
I16
sI1992
I18
sI1993
I11
sI1994
I18
sI1995
I10
sI1996
I15
sI1997
I6
sI1998
I7
sI1999
I7
sI2000
I14
sI2001
I10
sI2002
I6
sI2003
I6
sI2004
I7
sI2005
I9
sI2006
I6
sI2007
I9
sI2008
I9
sI2009
I9
sI2010
I6
sI2011
I11
sI2012
I6
sI2013
I8
sI2014
I11
sI2015
I12
ssb(dp194
s(ipubmed_timeline
Term
p195
(dp196
g10
S'United States'
p197
sg12
(dp198
I1945
I2
sI1946
I1
sI1947
I5
sI1948
I1
sI1949
I3
sI1950
I5
sI1951
I12
sI1952
I3
sI1953
I3
sI1954
I5
sI1955
I1
sI1956
I1
sI1957
I1
sI1958
I1
sI1959
I1
sI1961
I1
sI1962
I1
sI1963
I10
sI1964
I11
sI1965
I8
sI1966
I7
sI1967
I9
sI1968
I9
sI1969
I14
sI1970
I10
sI1971
I14
sI1972
I11
sI1973
I26
sI1974
I14
sI1975
I13
sI1976
I6
sI1977
I11
sI1978
I12
sI1979
I4
sI1980
I13
sI1981
I16
sI1982
I16
sI1983
I12
sI1984
I18
sI1985
I15
sI1986
I13
sI1987
I10
sI1988
I24
sI1989
I19
sI1990
I14
sI1991
I22
sI1992
I25
sI1993
I16
sI1994
I28
sI1995
I19
sI1996
I19
sI1997
I15
sI1998
I13
sI1999
I19
sI2000
I12
sI2001
I24
sI2002
I19
sI2003
I9
sI2004
I13
sI2005
I13
sI2006
I9
sI2007
I15
sI2008
I12
sI2009
I6
sI2010
I14
sI2011
I11
sI2012
I10
sI2013
I8
sI2014
I12
sI2015
I10
ssb(dp199
s(ipubmed_timeline
Term
p200
(dp201
g10
S'Rabbits'
p202
sg12
(dp203
I1945
I2
sI1946
I11
sI1947
I9
sI1948
I7
sI1949
I2
sI1950
I15
sI1951
I14
sI1952
I8
sI1953
I5
sI1954
I11
sI1955
I8
sI1956
I8
sI1957
I6
sI1958
I1
sI1959
I5
sI1960
I3
sI1961
I3
sI1962
I1
sI1963
I11
sI1964
I18
sI1965
I16
sI1966
I17
sI1967
I28
sI1968
I29
sI1969
I30
sI1970
I11
sI1971
I20
sI1972
I30
sI1973
I13
sI1974
I10
sI1975
I17
sI1976
I19
sI1977
I26
sI1978
I15
sI1979
I23
sI1980
I19
sI1981
I29
sI1982
I22
sI1983
I26
sI1984
I25
sI1985
I30
sI1986
I16
sI1987
I13
sI1988
I12
sI1989
I8
sI1990
I8
sI1991
I18
sI1992
I13
sI1993
I11
sI1994
I5
sI1995
I5
sI1996
I5
sI1997
I5
sI1998
I7
sI1999
I9
sI2000
I4
sI2001
I4
sI2002
I4
sI2003
I5
sI2004
I10
sI2005
I7
sI2006
I5
sI2007
I5
sI2008
I3
sI2009
I6
sI2010
I4
sI2011
I5
sI2012
I5
sI2013
I6
sI2014
I1
sI2015
I5
ssb(dp204
s(ipubmed_timeline
Term
p205
(dp206
g10
S'Incidence'
p207
sg12
(dp208
I1946
I5
sI1947
I3
sI1948
I8
sI1949
I3
sI1950
I3
sI1951
I4
sI1952
I11
sI1953
I4
sI1954
I5
sI1955
I3
sI1956
I4
sI1957
I2
sI1958
I4
sI1959
I4
sI1960
I4
sI1961
I2
sI1962
I5
sI1963
I5
sI1964
I5
sI1965
I4
sI1968
I1
sI1973
I1
sI1976
I1
sI1977
I2
sI1978
I1
sI1979
I1
sI1980
I1
sI1981
I2
sI1984
I3
sI1985
I3
sI1986
I1
sI1987
I1
sI1988
I2
sI1989
I8
sI1990
I30
sI1991
I24
sI1992
I16
sI1993
I21
sI1994
I29
sI1995
I36
sI1996
I33
sI1997
I22
sI1998
I30
sI1999
I32
sI2000
I32
sI2001
I33
sI2002
I32
sI2003
I29
sI2004
I18
sI2005
I45
sI2006
I32
sI2007
I29
sI2008
I32
sI2009
I35
sI2010
I43
sI2011
I35
sI2012
I35
sI2013
I46
sI2014
I55
sI2015
I49
ssb(dp209
ssS'node_dict_factory'
p210
c__builtin__
dict
p211
sS'edge_attr_dict_factory'
p212
g211
sS'edge'
p213
(dp214
g8
(dp215
g65
(dp216
S'w'
p217
I1
ssg55
(dp218
g217
I1
ssg20
(dp219
g217
I1
ssg60
(dp220
g217
I1
ssg125
(dp221
g217
I1
ssg145
(dp222
g217
I1
ssg70
(dp223
g217
I1
ssg75
(dp224
g217
I1
ssg80
(dp225
g217
I1
ssg45
(dp226
g217
I1
ssg100
(dp227
g217
I1
ssg130
(dp228
g217
I1
ssg105
(dp229
g217
I1
ssg25
(dp230
g217
I1
ssg110
(dp231
g217
I1
ssg165
(dp232
g217
I1
ssg170
(dp233
g217
I1
ssg175
(dp234
g217
I1
ssg180
(dp235
g217
I1
ssg205
(dp236
g217
I1
ssg30
(dp237
g217
I1
ssg35
(dp238
g217
I1
ssg40
(dp239
g217
I1
ssg195
(dp240
g217
I1
ssg135
(dp241
g217
I1
ssg120
(dp242
g217
I1
ssg15
(dp243
g217
I1
ssg95
(dp244
g217
I1
ssg140
(dp245
g217
I1
ssg90
(dp246
g217
I1
ssg160
(dp247
g217
I1
ssg115
(dp248
g217
I1
ssg190
(dp249
g217
I1
ssg150
(dp250
g217
I1
ssg200
(dp251
g217
I1
ssg185
(dp252
g217
I1
ssg50
(dp253
g217
I1
ssg155
(dp254
g217
I1
sssg15
(dp255
g50
(dp256
g217
I1
ssg55
(dp257
g217
I1
ssg60
(dp258
g217
I1
ssg65
(dp259
g217
I1
ssg125
(dp260
g217
I1
ssg25
(dp261
g217
I1
ssg145
(dp262
g217
I1
ssg75
(dp263
g217
I1
ssg80
(dp264
g217
I1
ssg120
(dp265
g217
I1
ssg110
(dp266
g217
I1
ssg115
(dp267
g217
I1
ssg170
(dp268
g217
I1
ssg175
(dp269
g217
I1
ssg180
(dp270
g217
I1
ssg205
(dp271
g217
I1
ssg30
(dp272
g217
I1
ssg35
(dp273
g217
I1
ssg40
(dp274
g217
I1
ssg45
(dp275
g217
I1
ssg105
(dp276
g217
I1
ssg200
(dp277
g217
I1
ssg8
g243
sg85
(dp278
g217
I1
ssg90
(dp279
g217
I1
ssg135
(dp280
g217
I1
ssg140
(dp281
g217
I1
ssg150
(dp282
g217
I1
ssg130
(dp283
g217
I1
ssg155
(dp284
g217
I1
ssg20
(dp285
g217
I1
ssg160
(dp286
g217
I1
ssg100
(dp287
g217
I1
ssg165
(dp288
g217
I1
ssg70
(dp289
g217
I1
ssg190
(dp290
g217
I1
ssg95
(dp291
g217
I1
ssg195
(dp292
g217
I1
ssg185
(dp293
g217
I1
sssg20
(dp294
g55
(dp295
g217
I1
ssg50
(dp296
g217
I1
ssg125
(dp297
g217
I1
ssg70
(dp298
g217
I1
ssg175
(dp299
g217
I1
ssg105
(dp300
g217
I1
ssg130
(dp301
g217
I1
ssg85
(dp302
g217
I1
ssg90
(dp303
g217
I1
ssg135
(dp304
g217
I1
ssg140
(dp305
g217
I1
ssg75
(dp306
g217
I1
ssg110
(dp307
g217
I1
ssg8
g219
sg145
(dp308
g217
I1
ssg15
g285
sg160
(dp309
g217
I1
ssg65
(dp310
g217
I1
ssg60
(dp311
g217
I1
ssg150
(dp312
g217
I1
ssg155
(dp313
g217
I1
ssg40
(dp314
g217
I1
ssg115
(dp315
g217
I1
ssg165
(dp316
g217
I1
ssg170
(dp317
g217
I1
ssg180
(dp318
g217
I1
ssg30
(dp319
g217
I1
ssg35
(dp320
g217
I1
ssg45
(dp321
g217
I1
ssg95
(dp322
g217
I1
ssg25
(dp323
g217
I1
ssg190
(dp324
g217
I1
ssg80
(dp325
g217
I1
ssg205
(dp326
g217
I1
ssg120
(dp327
g217
I1
ssg100
(dp328
g217
I1
ssg195
(dp329
g217
I1
ssg200
(dp330
g217
I1
ssg185
(dp331
g217
I1
sssg25
(dp332
g55
(dp333
g217
I1
ssg20
g323
sg60
(dp334
g217
I1
ssg65
(dp335
g217
I1
ssg125
(dp336
g217
I1
ssg25
(dp337
g217
I1
ssg150
(dp338
g217
I1
ssg155
(dp339
g217
I1
ssg75
(dp340
g217
I1
ssg80
(dp341
g217
I1
ssg15
g261
sg130
(dp342
g217
I1
ssg110
(dp343
g217
I1
ssg115
(dp344
g217
I1
ssg170
(dp345
g217
I1
ssg180
(dp346
g217
I1
ssg145
(dp347
g217
I1
ssg30
(dp348
g217
I1
ssg35
(dp349
g217
I1
ssg40
(dp350
g217
I1
ssg45
(dp351
g217
I1
ssg105
(dp352
g217
I1
ssg195
(dp353
g217
I1
ssg200
(dp354
g217
I1
ssg135
(dp355
g217
I1
ssg8
g230
sg120
(dp356
g217
I1
ssg85
(dp357
g217
I1
ssg90
(dp358
g217
I1
ssg140
(dp359
g217
I1
ssg160
(dp360
g217
I1
ssg100
(dp361
g217
I1
ssg165
(dp362
g217
I1
ssg70
(dp363
g217
I1
ssg190
(dp364
g217
I1
ssg175
(dp365
g217
I1
ssg95
(dp366
g217
I1
ssg185
(dp367
g217
I1
ssg205
(dp368
g217
I1
ssg50
(dp369
g217
I1
sssg30
(dp370
g65
(dp371
g217
I1
ssg55
(dp372
g217
I1
ssg125
(dp373
g217
I1
ssg25
g348
sg145
(dp374
g217
I1
ssg150
(dp375
g217
I1
ssg60
(dp376
g217
I1
ssg70
(dp377
g217
I1
ssg75
(dp378
g217
I1
ssg80
(dp379
g217
I1
ssg100
(dp380
g217
I1
ssg40
(dp381
g217
I1
ssg110
(dp382
g217
I1
ssg115
(dp383
g217
I1
ssg165
(dp384
g217
I1
ssg170
(dp385
g217
I1
ssg175
(dp386
g217
I1
ssg180
(dp387
g217
I1
ssg205
(dp388
g217
I1
ssg30
(dp389
g217
I1
ssg35
(dp390
g217
I1
ssg45
(dp391
g217
I1
ssg15
g272
sg8
g237
sg120
(dp392
g217
I1
ssg95
(dp393
g217
I1
ssg140
(dp394
g217
I1
ssg90
(dp395
g217
I1
ssg135
(dp396
g217
I1
ssg130
(dp397
g217
I1
ssg20
g319
sg160
(dp398
g217
I1
ssg190
(dp399
g217
I1
ssg195
(dp400
g217
I1
ssg200
(dp401
g217
I1
ssg185
(dp402
g217
I1
ssg50
(dp403
g217
I1
ssg155
(dp404
g217
I1
ssg105
(dp405
g217
I1
sssg35
(dp406
g50
(dp407
g217
I1
ssg55
(dp408
g217
I1
ssg20
g320
sg25
g349
sg150
(dp409
g217
I1
ssg60
(dp410
g217
I1
ssg125
(dp411
g217
I1
ssg70
(dp412
g217
I1
ssg80
(dp413
g217
I1
ssg160
(dp414
g217
I1
ssg120
(dp415
g217
I1
ssg15
g273
sg110
(dp416
g217
I1
ssg115
(dp417
g217
I1
ssg165
(dp418
g217
I1
ssg170
(dp419
g217
I1
ssg180
(dp420
g217
I1
ssg145
(dp421
g217
I1
ssg205
(dp422
g217
I1
ssg185
(dp423
g217
I1
ssg30
g390
sg40
(dp424
g217
I1
ssg45
(dp425
g217
I1
ssg100
(dp426
g217
I1
ssg200
(dp427
g217
I1
ssg135
(dp428
g217
I1
ssg8
g238
sg140
(dp429
g217
I1
ssg130
(dp430
g217
I1
ssg95
(dp431
g217
I1
ssg155
(dp432
g217
I1
ssg75
(dp433
g217
I1
ssg175
(dp434
g217
I1
ssg195
(dp435
g217
I1
ssg85
(dp436
g217
I1
ssg65
(dp437
g217
I1
ssg90
(dp438
g217
I1
sssg40
(dp439
g50
(dp440
g217
I1
ssg65
(dp441
g217
I1
ssg55
(dp442
g217
I1
ssg60
(dp443
g217
I1
ssg135
(dp444
g217
I1
ssg125
(dp445
g217
I1
ssg25
g350
sg140
(dp446
g217
I1
ssg145
(dp447
g217
I1
ssg35
g424
sg75
(dp448
g217
I1
ssg80
(dp449
g217
I1
ssg160
(dp450
g217
I1
ssg45
(dp451
g217
I1
ssg15
g274
sg110
(dp452
g217
I1
ssg165
(dp453
g217
I1
ssg170
(dp454
g217
I1
ssg175
(dp455
g217
I1
ssg180
(dp456
g217
I1
ssg205
(dp457
g217
I1
ssg30
g381
sg105
(dp458
g217
I1
ssg120
(dp459
g217
I1
ssg130
(dp460
g217
I1
ssg70
(dp461
g217
I1
ssg90
(dp462
g217
I1
ssg8
g239
sg150
(dp463
g217
I1
ssg20
g314
sg100
(dp464
g217
I1
ssg115
(dp465
g217
I1
ssg190
(dp466
g217
I1
ssg95
(dp467
g217
I1
ssg195
(dp468
g217
I1
ssg85
(dp469
g217
I1
ssg185
(dp470
g217
I1
ssg155
(dp471
g217
I1
sssg45
(dp472
g55
(dp473
g217
I1
ssg125
(dp474
g217
I1
ssg70
(dp475
g217
I1
ssg75
(dp476
g217
I1
ssg80
(dp477
g217
I1
ssg130
(dp478
g217
I1
ssg85
(dp479
g217
I1
ssg90
(dp480
g217
I1
ssg135
(dp481
g217
I1
ssg140
(dp482
g217
I1
ssg145
(dp483
g217
I1
ssg105
(dp484
g217
I1
ssg8
g226
sg15
g275
sg150
(dp485
g217
I1
ssg20
g321
sg160
(dp486
g217
I1
ssg180
(dp487
g217
I1
ssg65
(dp488
g217
I1
ssg60
(dp489
g217
I1
ssg155
(dp490
g217
I1
ssg100
(dp491
g217
I1
ssg110
(dp492
g217
I1
ssg115
(dp493
g217
I1
ssg165
(dp494
g217
I1
ssg170
(dp495
g217
I1
ssg175
(dp496
g217
I1
ssg30
g391
sg35
g425
sg40
g451
sg45
(dp497
g217
I1
ssg95
(dp498
g217
I1
ssg50
(dp499
g217
I1
ssg25
g351
sg190
(dp500
g217
I1
ssg205
(dp501
g217
I1
ssg120
(dp502
g217
I1
ssg195
(dp503
g217
I1
ssg200
(dp504
g217
I1
ssg185
(dp505
g217
I1
sssg50
(dp506
g55
(dp507
g217
I1
ssg60
(dp508
g217
I1
ssg65
(dp509
g217
I1
ssg125
(dp510
g217
I1
ssg175
(dp511
g217
I1
ssg25
g369
sg145
(dp512
g217
I1
ssg75
(dp513
g217
I1
ssg80
(dp514
g217
I1
ssg15
g256
sg110
(dp515
g217
I1
ssg115
(dp516
g217
I1
ssg170
(dp517
g217
I1
ssg180
(dp518
g217
I1
ssg205
(dp519
g217
I1
ssg30
g403
sg35
g407
sg40
g440
sg45
g499
sg105
(dp520
g217
I1
ssg8
g253
sg120
(dp521
g217
I1
ssg130
(dp522
g217
I1
ssg200
(dp523
g217
I1
ssg70
(dp524
g217
I1
ssg85
(dp525
g217
I1
ssg90
(dp526
g217
I1
ssg135
(dp527
g217
I1
ssg140
(dp528
g217
I1
ssg150
(dp529
g217
I1
ssg155
(dp530
g217
I1
ssg20
g296
sg160
(dp531
g217
I1
ssg100
(dp532
g217
I1
ssg165
(dp533
g217
I1
ssg190
(dp534
g217
I1
ssg95
(dp535
g217
I1
ssg195
(dp536
g217
I1
ssg185
(dp537
g217
I1
sssg55
(dp538
g50
g507
sg60
(dp539
g217
I1
ssg65
(dp540
g217
I1
ssg125
(dp541
g217
I1
ssg175
(dp542
g217
I1
ssg25
g333
sg145
(dp543
g217
I1
ssg150
(dp544
g217
I1
ssg75
(dp545
g217
I1
ssg80
(dp546
g217
I1
ssg15
g257
sg110
(dp547
g217
I1
ssg115
(dp548
g217
I1
ssg170
(dp549
g217
I1
ssg180
(dp550
g217
I1
ssg205
(dp551
g217
I1
ssg30
g372
sg35
g408
sg40
g442
sg45
g473
sg105
(dp552
g217
I1
ssg200
(dp553
g217
I1
ssg8
g218
sg120
(dp554
g217
I1
ssg130
(dp555
g217
I1
ssg85
(dp556
g217
I1
ssg90
(dp557
g217
I1
ssg135
(dp558
g217
I1
ssg140
(dp559
g217
I1
ssg155
(dp560
g217
I1
ssg20
g295
sg160
(dp561
g217
I1
ssg100
(dp562
g217
I1
ssg165
(dp563
g217
I1
ssg70
(dp564
g217
I1
ssg190
(dp565
g217
I1
ssg95
(dp566
g217
I1
ssg195
(dp567
g217
I1
ssg185
(dp568
g217
I1
sssg60
(dp569
g50
g508
sg65
(dp570
g217
I1
ssg55
g539
sg125
(dp571
g217
I1
ssg175
(dp572
g217
I1
ssg140
(dp573
g217
I1
ssg150
(dp574
g217
I1
ssg155
(dp575
g217
I1
ssg75
(dp576
g217
I1
ssg80
(dp577
g217
I1
ssg130
(dp578
g217
I1
ssg110
(dp579
g217
I1
ssg115
(dp580
g217
I1
ssg165
(dp581
g217
I1
ssg170
(dp582
g217
I1
ssg205
(dp583
g217
I1
ssg30
g376
sg35
g410
sg40
g443
sg45
g489
sg105
(dp584
g217
I1
ssg195
(dp585
g217
I1
ssg120
(dp586
g217
I1
ssg15
g258
sg95
(dp587
g217
I1
ssg25
g334
sg85
(dp588
g217
I1
ssg90
(dp589
g217
I1
ssg135
(dp590
g217
I1
ssg8
g220
sg20
g311
sg100
(dp591
g217
I1
ssg70
(dp592
g217
I1
ssg190
(dp593
g217
I1
ssg200
(dp594
g217
I1
ssg180
(dp595
g217
I1
ssg185
(dp596
g217
I1
ssg145
(dp597
g217
I1
sssg65
(dp598
g55
g540
sg50
g509
sg60
g570
sg125
(dp599
g217
I1
ssg25
g335
sg150
(dp600
g217
I1
ssg70
(dp601
g217
I1
ssg40
g441
sg75
(dp602
g217
I1
ssg80
(dp603
g217
I1
ssg45
g488
sg130
(dp604
g217
I1
ssg15
g259
sg110
(dp605
g217
I1
ssg115
(dp606
g217
I1
ssg165
(dp607
g217
I1
ssg175
(dp608
g217
I1
ssg205
(dp609
g217
I1
ssg30
g371
sg120
(dp610
g217
I1
ssg95
(dp611
g217
I1
ssg85
(dp612
g217
I1
ssg135
(dp613
g217
I1
ssg8
g216
sg140
(dp614
g217
I1
ssg20
g310
sg160
(dp615
g217
I1
ssg100
(dp616
g217
I1
ssg145
(dp617
g217
I1
ssg190
(dp618
g217
I1
ssg170
(dp619
g217
I1
ssg195
(dp620
g217
I1
ssg200
(dp621
g217
I1
ssg185
(dp622
g217
I1
ssg90
(dp623
g217
I1
ssg35
g437
sg155
(dp624
g217
I1
ssg105
(dp625
g217
I1
sssg70
(dp626
g50
g524
sg65
g601
sg55
g564
sg60
g592
sg125
(dp627
g217
I1
ssg145
(dp628
g217
I1
ssg20
g298
sg75
(dp629
g217
I1
ssg80
(dp630
g217
I1
ssg120
(dp631
g217
I1
ssg105
(dp632
g217
I1
ssg25
g363
sg45
g475
sg150
(dp633
g217
I1
ssg110
(dp634
g217
I1
ssg115
(dp635
g217
I1
ssg170
(dp636
g217
I1
ssg205
(dp637
g217
I1
ssg30
g377
sg35
g412
sg40
g461
sg15
g289
sg95
(dp638
g217
I1
ssg140
(dp639
g217
I1
ssg135
(dp640
g217
I1
ssg8
g223
sg130
(dp641
g217
I1
ssg160
(dp642
g217
I1
ssg100
(dp643
g217
I1
ssg165
(dp644
g217
I1
ssg190
(dp645
g217
I1
ssg175
(dp646
g217
I1
ssg195
(dp647
g217
I1
ssg200
(dp648
g217
I1
ssg180
(dp649
g217
I1
ssg185
(dp650
g217
I1
ssg155
(dp651
g217
I1
sssg75
(dp652
g50
g513
sg65
g602
sg55
g545
sg60
g576
sg135
(dp653
g217
I1
ssg125
(dp654
g217
I1
ssg25
g340
sg160
(dp655
g217
I1
ssg145
(dp656
g217
I1
ssg20
g306
sg75
(dp657
g217
I1
ssg80
(dp658
g217
I1
ssg15
g263
sg130
(dp659
g217
I1
ssg180
(dp660
g217
I1
ssg110
(dp661
g217
I1
ssg115
(dp662
g217
I1
ssg170
(dp663
g217
I1
ssg175
(dp664
g217
I1
ssg205
(dp665
g217
I1
ssg30
g378
sg35
g433
sg40
g448
sg45
g476
sg105
(dp666
g217
I1
ssg8
g224
sg120
(dp667
g217
I1
ssg95
(dp668
g217
I1
ssg140
(dp669
g217
I1
ssg90
(dp670
g217
I1
ssg150
(dp671
g217
I1
ssg155
(dp672
g217
I1
ssg100
(dp673
g217
I1
ssg165
(dp674
g217
I1
ssg70
g629
sg190
(dp675
g217
I1
ssg195
(dp676
g217
I1
ssg200
(dp677
g217
I1
ssg185
(dp678
g217
I1
sssg80
(dp679
g65
g603
sg55
g546
sg60
g577
sg145
(dp680
g217
I1
ssg30
g379
sg125
(dp681
g217
I1
ssg70
g630
sg75
g658
sg160
(dp682
g217
I1
ssg15
g264
sg25
g341
sg110
(dp683
g217
I1
ssg115
(dp684
g217
I1
ssg175
(dp685
g217
I1
ssg180
(dp686
g217
I1
ssg205
(dp687
g217
I1
ssg35
g413
sg40
g449
sg45
g477
sg105
(dp688
g217
I1
ssg135
(dp689
g217
I1
ssg140
(dp690
g217
I1
ssg150
(dp691
g217
I1
ssg130
(dp692
g217
I1
ssg20
g325
sg100
(dp693
g217
I1
ssg165
(dp694
g217
I1
ssg190
(dp695
g217
I1
ssg195
(dp696
g217
I1
ssg185
(dp697
g217
I1
ssg8
g225
sg50
g514
sg170
(dp698
g217
I1
ssg90
(dp699
g217
I1
ssg155
(dp700
g217
I1
ssg120
(dp701
g217
I1
sssg85
(dp702
g50
g525
sg65
g612
sg60
g588
sg125
(dp703
g217
I1
ssg160
(dp704
g217
I1
ssg150
(dp705
g217
I1
ssg35
g436
sg40
g469
sg25
g357
sg170
(dp706
g217
I1
ssg175
(dp707
g217
I1
ssg205
(dp708
g217
I1
ssg45
g479
sg15
g278
sg130
(dp709
g217
I1
ssg90
(dp710
g217
I1
ssg135
(dp711
g217
I1
ssg140
(dp712
g217
I1
ssg20
g302
sg100
(dp713
g217
I1
ssg190
(dp714
g217
I1
ssg95
(dp715
g217
I1
ssg200
(dp716
g217
I1
ssg185
(dp717
g217
I1
ssg145
(dp718
g217
I1
ssg55
g556
sg195
(dp719
g217
I1
sssg90
(dp720
g50
g526
sg65
g623
sg60
g589
sg125
(dp721
g217
I1
ssg25
g358
sg145
(dp722
g217
I1
ssg30
g395
sg190
(dp723
g217
I1
ssg40
g462
sg165
(dp724
g217
I1
ssg170
(dp725
g217
I1
ssg175
(dp726
g217
I1
ssg205
(dp727
g217
I1
ssg35
g438
sg45
g480
sg105
(dp728
g217
I1
ssg100
(dp729
g217
I1
ssg120
(dp730
g217
I1
ssg8
g246
sg195
(dp731
g217
I1
ssg15
g279
sg130
(dp732
g217
I1
ssg95
(dp733
g217
I1
ssg135
(dp734
g217
I1
ssg140
(dp735
g217
I1
ssg150
(dp736
g217
I1
ssg155
(dp737
g217
I1
ssg20
g303
sg160
(dp738
g217
I1
ssg75
g670
sg80
g699
sg200
(dp739
g217
I1
ssg85
g710
sg55
g557
sg185
(dp740
g217
I1
sssg95
(dp741
g65
g611
sg60
g587
sg125
(dp742
g217
I1
ssg25
g366
sg145
(dp743
g217
I1
ssg150
(dp744
g217
I1
ssg70
g638
sg155
(dp745
g217
I1
ssg120
(dp746
g217
I1
ssg130
(dp747
g217
I1
ssg110
(dp748
g217
I1
ssg115
(dp749
g217
I1
ssg165
(dp750
g217
I1
ssg170
(dp751
g217
I1
ssg175
(dp752
g217
I1
ssg180
(dp753
g217
I1
ssg205
(dp754
g217
I1
ssg30
g393
sg35
g431
sg40
g467
sg45
g498
sg105
(dp755
g217
I1
ssg135
(dp756
g217
I1
ssg8
g244
sg15
g291
sg95
(dp757
g217
I1
ssg140
(dp758
g217
I1
ssg85
g715
sg20
g322
sg160
(dp759
g217
I1
ssg100
(dp760
g217
I1
ssg75
g668
sg190
(dp761
g217
I1
ssg195
(dp762
g217
I1
ssg50
g535
sg90
g733
sg55
g566
sg185
(dp763
g217
I1
sssg100
(dp764
g50
g532
sg55
g562
sg125
(dp765
g217
I1
ssg75
g673
sg80
g693
sg70
g643
sg90
g729
sg135
(dp766
g217
I1
ssg140
(dp767
g217
I1
ssg8
g227
sg145
(dp768
g217
I1
ssg15
g287
sg105
(dp769
g217
I1
ssg150
(dp770
g217
I1
ssg155
(dp771
g217
I1
ssg20
g328
sg160
(dp772
g217
I1
ssg180
(dp773
g217
I1
ssg65
g616
sg60
g591
sg110
(dp774
g217
I1
ssg115
(dp775
g217
I1
ssg165
(dp776
g217
I1
ssg170
(dp777
g217
I1
ssg175
(dp778
g217
I1
ssg30
g380
sg35
g426
sg40
g464
sg45
g491
sg190
(dp779
g217
I1
ssg195
(dp780
g217
I1
ssg95
g760
sg25
g361
sg130
(dp781
g217
I1
ssg205
(dp782
g217
I1
ssg120
(dp783
g217
I1
ssg200
(dp784
g217
I1
ssg185
(dp785
g217
I1
ssg85
g713
ssg105
(dp786
g65
g625
sg55
g552
sg60
g584
sg125
(dp787
g217
I1
ssg25
g352
sg75
g666
sg80
g688
sg160
(dp788
g217
I1
ssg15
g276
sg115
(dp789
g217
I1
ssg165
(dp790
g217
I1
ssg170
(dp791
g217
I1
ssg175
(dp792
g217
I1
ssg180
(dp793
g217
I1
ssg145
(dp794
g217
I1
ssg205
(dp795
g217
I1
ssg30
g405
sg40
g458
sg45
g484
sg195
(dp796
g217
I1
ssg8
g229
sg70
g632
sg95
g755
sg140
(dp797
g217
I1
ssg135
(dp798
g217
I1
ssg130
(dp799
g217
I1
ssg155
(dp800
g217
I1
ssg20
g300
sg100
g769
sg110
(dp801
g217
I1
ssg150
(dp802
g217
I1
ssg200
(dp803
g217
I1
ssg185
(dp804
g217
I1
ssg50
g520
sg90
g728
sg120
(dp805
g217
I1
sssg110
(dp806
g50
g515
sg65
g605
sg55
g547
sg60
g579
sg135
(dp807
g217
I1
ssg125
(dp808
g217
I1
ssg140
(dp809
g217
I1
ssg70
g634
sg190
(dp810
g217
I1
ssg155
(dp811
g217
I1
ssg75
g661
sg80
g683
sg160
(dp812
g217
I1
ssg120
(dp813
g217
I1
ssg175
(dp814
g217
I1
ssg25
g343
sg115
(dp815
g217
I1
ssg165
(dp816
g217
I1
ssg170
(dp817
g217
I1
ssg180
(dp818
g217
I1
ssg205
(dp819
g217
I1
ssg30
g382
sg35
g416
sg40
g452
sg45
g492
sg105
g801
sg200
(dp820
g217
I1
ssg15
g266
sg8
g231
sg150
(dp821
g217
I1
ssg130
(dp822
g217
I1
ssg20
g307
sg100
g774
sg95
g748
sg185
(dp823
g217
I1
ssg145
(dp824
g217
I1
ssg195
(dp825
g217
I1
sssg115
(dp826
g50
g516
sg65
g606
sg60
g580
sg135
(dp827
g217
I1
ssg125
(dp828
g217
I1
ssg25
g344
sg150
(dp829
g217
I1
ssg35
g417
sg40
g465
sg75
g662
sg80
g684
sg160
(dp830
g217
I1
ssg165
(dp831
g217
I1
ssg170
(dp832
g217
I1
ssg175
(dp833
g217
I1
ssg180
(dp834
g217
I1
ssg145
(dp835
g217
I1
ssg205
(dp836
g217
I1
ssg30
g383
sg45
g493
sg105
g789
sg8
g248
sg120
(dp837
g217
I1
ssg15
g267
sg130
(dp838
g217
I1
ssg70
g635
sg95
g749
sg140
(dp839
g217
I1
ssg155
(dp840
g217
I1
ssg20
g315
sg100
g775
sg110
g815
sg190
(dp841
g217
I1
ssg195
(dp842
g217
I1
ssg185
(dp843
g217
I1
ssg55
g548
ssg120
(dp844
g50
g521
sg65
g610
sg55
g554
sg60
g586
sg25
g356
sg30
g392
sg35
g415
sg125
(dp845
g217
I1
ssg70
g631
sg155
(dp846
g217
I1
ssg75
g667
sg80
g701
sg45
g502
sg130
(dp847
g217
I1
ssg110
g813
sg115
g837
sg165
(dp848
g217
I1
ssg170
(dp849
g217
I1
ssg175
(dp850
g217
I1
ssg205
(dp851
g217
I1
ssg40
g459
sg105
g805
sg15
g265
sg95
g746
sg135
(dp852
g217
I1
ssg8
g242
sg140
(dp853
g217
I1
ssg150
(dp854
g217
I1
ssg20
g327
sg160
(dp855
g217
I1
ssg100
g783
sg190
(dp856
g217
I1
ssg195
(dp857
g217
I1
ssg200
(dp858
g217
I1
ssg185
(dp859
g217
I1
ssg145
(dp860
g217
I1
ssg90
g730
ssg125
(dp861
g65
g599
sg55
g541
sg50
g510
sg60
g571
sg135
(dp862
g217
I1
ssg25
g336
sg30
g373
sg70
g627
sg20
g297
sg80
g681
sg45
g474
sg100
g765
sg75
g654
sg110
g808
sg115
g828
sg165
(dp863
g217
I1
ssg175
(dp864
g217
I1
ssg145
(dp865
g217
I1
ssg35
g411
sg40
g445
sg195
(dp866
g217
I1
ssg120
g845
sg15
g260
sg200
(dp867
g217
I1
ssg95
g742
sg85
g703
sg90
g721
sg140
(dp868
g217
I1
ssg150
(dp869
g217
I1
ssg130
(dp870
g217
I1
ssg155
(dp871
g217
I1
ssg160
(dp872
g217
I1
ssg105
g787
sg190
(dp873
g217
I1
ssg170
(dp874
g217
I1
ssg185
(dp875
g217
I1
ssg205
(dp876
g217
I1
ssg8
g221
ssg130
(dp877
g65
g604
sg55
g555
sg20
g301
sg60
g578
sg135
(dp878
g217
I1
ssg125
g870
sg25
g342
sg145
(dp879
g217
I1
ssg35
g430
sg155
(dp880
g217
I1
ssg75
g659
sg80
g692
sg110
g822
sg115
g838
sg170
(dp881
g217
I1
ssg180
(dp882
g217
I1
ssg205
(dp883
g217
I1
ssg30
g397
sg40
g460
sg45
g478
sg105
g799
sg120
g847
sg15
g283
sg90
g732
sg140
(dp884
g217
I1
ssg150
(dp885
g217
I1
ssg130
(dp886
g217
I1
ssg160
(dp887
g217
I1
ssg100
g781
sg165
(dp888
g217
I1
ssg70
g641
sg190
(dp889
g217
I1
ssg175
(dp890
g217
I1
ssg95
g747
sg195
(dp891
g217
I1
ssg185
(dp892
g217
I1
ssg8
g228
sg50
g522
sg85
g709
ssg135
(dp893
g50
g527
sg55
g558
sg65
g613
sg125
g862
sg145
(dp894
g217
I1
ssg150
(dp895
g217
I1
ssg30
g396
sg20
g304
sg75
g653
sg100
g766
sg60
g590
sg25
g355
sg110
g807
sg115
g827
sg175
(dp896
g217
I1
ssg180
(dp897
g217
I1
ssg205
(dp898
g217
I1
ssg35
g428
sg40
g444
sg45
g481
sg105
g798
sg135
(dp899
g217
I1
ssg8
g241
sg120
g852
sg15
g280
sg130
g878
sg70
g640
sg95
g756
sg85
g711
sg90
g734
sg140
(dp900
g217
I1
ssg160
(dp901
g217
I1
ssg165
(dp902
g217
I1
ssg80
g689
sg190
(dp903
g217
I1
ssg170
(dp904
g217
I1
ssg195
(dp905
g217
I1
ssg200
(dp906
g217
I1
ssg155
(dp907
g217
I1
ssg185
(dp908
g217
I1
sssg140
(dp909
g50
g528
sg55
g559
sg125
g868
sg70
g639
sg75
g669
sg80
g690
sg130
g884
sg85
g712
sg90
g735
sg135
g900
sg145
(dp910
g217
I1
ssg105
g797
sg8
g245
sg15
g281
sg155
(dp911
g217
I1
ssg20
g305
sg160
(dp912
g217
I1
ssg165
(dp913
g217
I1
ssg170
(dp914
g217
I1
ssg65
g614
sg60
g573
sg40
g446
sg25
g359
sg110
g809
sg115
g839
sg175
(dp915
g217
I1
ssg30
g394
sg35
g429
sg45
g482
sg195
(dp916
g217
I1
ssg200
(dp917
g217
I1
ssg95
g758
sg150
(dp918
g217
I1
ssg190
(dp919
g217
I1
ssg120
g853
sg100
g767
sg185
(dp920
g217
I1
ssg205
(dp921
g217
I1
sssg145
(dp922
g50
g512
sg55
g543
sg60
g597
sg125
g865
sg25
g347
sg150
(dp923
g217
I1
ssg75
g656
sg80
g680
sg100
g768
sg110
g824
sg170
(dp924
g217
I1
ssg175
(dp925
g217
I1
ssg180
(dp926
g217
I1
ssg205
(dp927
g217
I1
ssg30
g374
sg35
g421
sg40
g447
sg45
g483
sg105
g794
sg200
(dp928
g217
I1
ssg135
g894
sg8
g222
sg120
g860
sg15
g262
sg130
g879
sg95
g743
sg90
g722
sg140
g910
sg155
(dp929
g217
I1
ssg20
g308
sg160
(dp930
g217
I1
ssg115
g835
sg165
(dp931
g217
I1
ssg70
g628
sg190
(dp932
g217
I1
ssg195
(dp933
g217
I1
ssg85
g718
sg65
g617
sg185
(dp934
g217
I1
ssg145
(dp935
g217
I1
sssg150
(dp936
g8
g250
sg15
g282
sg30
g375
sg35
g409
sg40
g463
sg45
g485
sg50
g529
sg55
g544
sg25
g338
sg65
g600
sg70
g633
sg75
g671
sg80
g691
sg85
g705
sg90
g736
sg120
g854
sg60
g574
sg95
g744
sg185
(dp937
g217
I1
ssg100
g770
sg200
(dp938
g217
I1
ssg105
g802
sg110
g821
sg115
g829
sg125
g869
sg130
g885
sg135
g895
sg140
g918
sg145
g923
sg150
(dp939
g217
I1
ssg155
(dp940
g217
I1
ssg20
g312
sg160
(dp941
g217
I1
ssg165
(dp942
g217
I1
ssg170
(dp943
g217
I1
ssg175
(dp944
g217
I1
ssg180
(dp945
g217
I1
ssg190
(dp946
g217
I1
ssg195
(dp947
g217
I1
ssg205
(dp948
g217
I1
sssg155
(dp949
g50
g530
sg65
g624
sg55
g560
sg60
g575
sg125
g871
sg150
g940
sg70
g651
sg20
g313
sg75
g672
sg80
g700
sg100
g771
sg40
g471
sg130
g880
sg105
g800
sg25
g339
sg110
g811
sg115
g840
sg170
(dp950
g217
I1
ssg175
(dp951
g217
I1
ssg180
(dp952
g217
I1
ssg145
g929
sg205
(dp953
g217
I1
ssg30
g404
sg35
g432
sg45
g490
sg120
g846
sg15
g284
sg95
g745
sg90
g737
sg135
g907
sg140
g911
sg160
(dp954
g217
I1
ssg165
(dp955
g217
I1
ssg190
(dp956
g217
I1
ssg195
(dp957
g217
I1
ssg200
(dp958
g217
I1
ssg185
(dp959
g217
I1
ssg8
g254
ssg160
(dp960
g50
g531
sg65
g615
sg55
g561
sg135
g901
sg125
g872
sg140
g912
sg150
g941
sg20
g309
sg75
g655
sg80
g682
sg45
g486
sg180
(dp961
g217
I1
ssg25
g360
sg170
(dp962
g217
I1
ssg175
(dp963
g217
I1
ssg145
g930
sg185
(dp964
g217
I1
ssg30
g398
sg35
g414
sg40
g450
sg105
g788
sg8
g247
sg120
g855
sg15
g286
sg130
g887
sg70
g642
sg95
g759
sg85
g704
sg90
g738
sg155
g954
sg100
g772
sg115
g830
sg165
(dp965
g217
I1
ssg190
(dp966
g217
I1
ssg195
(dp967
g217
I1
ssg200
(dp968
g217
I1
ssg110
g812
sg205
(dp969
g217
I1
sssg165
(dp970
g65
g607
sg55
g563
sg60
g581
sg125
g863
sg25
g362
sg140
g913
sg150
g942
sg30
g384
sg155
g955
sg75
g674
sg80
g694
sg160
g965
sg90
g724
sg15
g288
sg110
g816
sg175
(dp971
g217
I1
ssg145
g931
sg205
(dp972
g217
I1
ssg35
g418
sg40
g453
sg45
g494
sg105
g790
sg120
g848
sg135
g902
sg8
g232
sg130
g888
sg95
g750
sg20
g316
sg100
g776
sg115
g831
sg70
g644
sg190
(dp973
g217
I1
ssg170
(dp974
g217
I1
ssg195
(dp975
g217
I1
ssg180
(dp976
g217
I1
ssg185
(dp977
g217
I1
ssg50
g533
ssg170
(dp978
g65
g619
sg55
g549
sg60
g582
sg125
g874
sg25
g345
sg155
g950
sg75
g663
sg80
g698
sg160
g962
sg15
g268
sg110
g817
sg170
(dp979
g217
I1
ssg180
(dp980
g217
I1
ssg145
g924
sg205
(dp981
g217
I1
ssg30
g385
sg35
g419
sg40
g454
sg45
g495
sg105
g791
sg195
(dp982
g217
I1
ssg120
g849
sg70
g636
sg95
g751
sg140
g914
sg90
g725
sg135
g904
sg130
g881
sg20
g317
sg100
g777
sg115
g832
sg165
g974
sg190
(dp983
g217
I1
ssg175
(dp984
g217
I1
ssg150
g943
sg200
(dp985
g217
I1
ssg85
g706
sg8
g233
sg50
g517
sg185
(dp986
g217
I1
sssg175
(dp987
g65
g608
sg60
g572
sg125
g864
sg175
(dp988
g217
I1
ssg25
g365
sg35
g434
sg75
g664
sg80
g685
sg110
g814
sg165
g971
sg170
g984
sg145
g925
sg205
(dp989
g217
I1
ssg30
g386
sg40
g455
sg45
g496
sg105
g792
sg190
(dp990
g217
I1
ssg120
g850
sg15
g269
sg70
g646
sg95
g752
sg140
g915
sg135
g896
sg150
g944
sg130
g890
sg155
g951
sg20
g299
sg160
g963
sg100
g778
sg115
g833
sg195
(dp991
g217
I1
ssg180
(dp992
g217
I1
ssg85
g707
sg185
(dp993
g217
I1
ssg8
g234
sg50
g511
sg90
g726
sg55
g542
ssg180
(dp994
g20
g318
sg60
g595
sg135
g897
sg55
g550
sg25
g346
sg145
g926
sg80
g686
sg160
g961
sg130
g882
sg110
g818
sg115
g834
sg165
g976
sg170
g980
sg175
g992
sg205
(dp995
g217
I1
ssg30
g387
sg35
g420
sg40
g456
sg45
g487
sg105
g793
sg195
(dp996
g217
I1
ssg15
g270
sg70
g649
sg95
g753
sg100
g773
sg75
g660
sg190
(dp997
g217
I1
ssg150
g945
sg185
(dp998
g217
I1
ssg8
g235
sg50
g518
sg155
g952
ssg185
(dp999
g70
g650
sg75
g678
sg80
g697
sg130
g892
sg90
g740
sg135
g908
sg140
g920
sg125
g875
sg145
g934
sg120
g859
sg105
g804
sg8
g252
sg15
g293
sg150
g937
sg20
g331
sg160
g964
sg110
g823
sg115
g843
sg165
g977
sg65
g622
sg60
g596
sg155
g959
sg40
g470
sg100
g785
sg170
g986
sg175
g993
sg180
g998
sg30
g402
sg35
g423
sg45
g505
sg50
g537
sg55
g568
sg25
g367
sg190
(dp1000
g217
I1
ssg95
g763
sg195
(dp1001
g217
I1
ssg200
(dp1002
g217
I1
ssg185
(dp1003
g217
I1
ssg205
(dp1004
g217
I1
ssg85
g717
ssg190
(dp1005
g65
g618
sg20
g324
sg50
g534
sg60
g593
sg55
g565
sg140
g919
sg145
g932
sg125
g873
sg155
g956
sg120
g856
sg130
g889
sg25
g364
sg110
g810
sg115
g841
sg165
g973
sg170
g983
sg180
g997
sg205
(dp1006
g217
I1
ssg30
g399
sg40
g466
sg45
g500
sg195
(dp1007
g217
I1
ssg200
(dp1008
g217
I1
ssg8
g249
sg15
g290
sg95
g761
sg135
g903
sg150
g946
sg160
g966
sg100
g779
sg75
g675
sg70
g645
sg80
g695
sg175
g990
sg85
g714
sg185
g1000
sg90
g723
ssg195
(dp1009
g65
g620
sg50
g536
sg60
g585
sg125
g866
sg55
g567
sg175
g991
sg25
g353
sg145
g933
sg155
g957
sg75
g676
sg110
g825
sg115
g842
sg165
g975
sg170
g982
sg180
g996
sg205
(dp1010
g217
I1
ssg30
g400
sg40
g468
sg45
g503
sg105
g796
sg100
g780
sg135
g905
sg120
g857
sg15
g292
sg130
g891
sg95
g762
sg85
g719
sg140
g916
sg150
g947
sg20
g329
sg160
g967
sg70
g647
sg80
g696
sg190
g1007
sg195
(dp1011
g217
I1
ssg200
(dp1012
g217
I1
ssg185
g1001
sg8
g240
sg90
g731
sg35
g435
ssg200
(dp1013
g50
g523
sg65
g621
sg55
g553
sg60
g594
sg140
g917
sg190
g1008
sg125
g867
sg155
g958
sg75
g677
sg25
g354
sg110
g820
sg170
g985
sg30
g401
sg35
g427
sg45
g504
sg105
g803
sg195
g1012
sg135
g906
sg120
g858
sg15
g277
sg85
g716
sg20
g330
sg160
g968
sg100
g784
sg70
g648
sg150
g938
sg185
g1002
sg145
g928
sg8
g251
sg90
g739
ssg205
(dp1014
g50
g519
sg65
g609
sg55
g551
sg60
g583
sg125
g876
sg35
g422
sg70
g637
sg190
g1006
sg155
g953
sg75
g665
sg80
g687
sg120
g851
sg25
g368
sg15
g271
sg110
g819
sg115
g836
sg165
g972
sg170
g981
sg145
g927
sg185
g1004
sg30
g388
sg40
g457
sg45
g501
sg105
g795
sg205
(dp1015
g217
I1
ssg130
g883
sg95
g754
sg85
g708
sg90
g727
sg135
g898
sg140
g921
sg150
g948
sg20
g326
sg160
g969
sg100
g782
sg175
g989
sg180
g995
sg195
g1010
sg8
g236
sssS'graph'
p1016
(dp1017
sS'adjlist_dict_factory'
p1018
g211
sS'adj'
p1019
g214
sb.