ccopy_reg
_reconstructor
p0
(cnetworkx.classes.graph
Graph
p1
c__builtin__
object
p2
Ntp3
Rp4
(dp5
S'node'
p6
(dp7
(ipubmed_timeline
Term
p8
(dp9
S'term'
p10
VAGE GROUPS
p11
sS'mentions_in_year'
p12
(dp13
I1921
I2
sI1925
I1
sI1932
I1
sI1934
I2
sI1935
I1
sI1943
I1
sI1945
I9
sI1946
I20
sI1947
I35
sI1948
I16
sI1949
I15
sI1950
I31
sI1951
I42
sI1952
I42
sI1953
I45
sI1954
I30
sI1955
I11
sI1956
I34
sI1957
I40
sI1958
I21
sI1959
I20
sI1960
I21
sI1961
I12
sI1962
I34
sI1963
I78
sI1964
I143
sI1965
I257
sI1966
I382
sI1967
I491
sI1968
I444
sI1969
I494
sI1970
I512
sI1971
I511
sI1972
I498
sI1973
I410
sI1974
I452
sI1975
I399
sI1976
I400
sI1977
I378
sI1978
I302
sI1979
I354
sI1980
I392
sI1981
I373
sI1982
I413
sI1983
I365
sI1984
I384
sI1985
I401
sI1986
I306
sI1987
I337
sI1988
I397
sI1989
I386
sI1990
I498
sI1991
I428
sI1992
I450
sI1993
I499
sI1994
I488
sI1995
I434
sI1996
I351
sI1997
I365
sI1998
I384
sI1999
I443
sI2000
I403
sI2001
I444
sI2002
I461
sI2003
I496
sI2004
I433
sI2005
I547
sI2006
I561
sI2007
I567
sI2008
I691
sI2009
I813
sI2010
I811
sI2011
I868
sI2012
I988
sI2013
I943
sI2014
I996
sI2015
I860
sI1901
I1
sI1875
I1
sI1909
I2
sI1911
I1
sI1912
I2
sI1917
I1
sI1918
I6
ssb(dp14
s(ipubmed_timeline
Term
p15
(dp16
g10
S'microbiology'
p17
sg12
(dp18
I1948
I1
sI1952
I1
sI1953
I2
sI1965
I5
sI1966
I7
sI1967
I16
sI1968
I38
sI1969
I68
sI1970
I39
sI1971
I41
sI1972
I62
sI1973
I22
sI1974
I40
sI1975
I58
sI1976
I20
sI1977
I23
sI1978
I26
sI1979
I36
sI1980
I41
sI1981
I34
sI1982
I32
sI1983
I44
sI1984
I31
sI1985
I41
sI1986
I37
sI1987
I29
sI1988
I32
sI1989
I33
sI1990
I46
sI1991
I67
sI1992
I70
sI1993
I85
sI1994
I80
sI1995
I82
sI1996
I57
sI1997
I63
sI1998
I43
sI1999
I71
sI2000
I74
sI2001
I76
sI2002
I70
sI2003
I69
sI2004
I71
sI2005
I121
sI2006
I164
sI2007
I123
sI2008
I171
sI2009
I161
sI2010
I125
sI2011
I150
sI2012
I181
sI2013
I221
sI2014
I194
sI2015
I188
ssb(dp19
s(ipubmed_timeline
Term
p20
(dp21
g10
S'isolation & purification'
p22
sg12
(dp23
I1965
I3
sI1966
I1
sI1967
I10
sI1968
I20
sI1969
I39
sI1970
I36
sI1971
I37
sI1972
I36
sI1973
I24
sI1974
I37
sI1975
I64
sI1976
I15
sI1977
I13
sI1978
I22
sI1979
I11
sI1980
I10
sI1981
I24
sI1982
I20
sI1983
I24
sI1984
I21
sI1985
I35
sI1986
I28
sI1987
I20
sI1988
I23
sI1989
I32
sI1990
I22
sI1991
I45
sI1992
I17
sI1993
I20
sI1994
I31
sI1995
I28
sI1996
I41
sI1997
I27
sI1998
I27
sI1999
I45
sI2000
I42
sI2001
I37
sI2002
I46
sI2003
I41
sI2004
I36
sI2005
I37
sI2006
I73
sI2007
I62
sI2008
I80
sI2009
I69
sI2010
I86
sI2011
I75
sI2012
I97
sI2013
I106
sI2014
I87
sI2015
I103
ssb(dp24
s(ipubmed_timeline
Term
p25
(dp26
g10
S'HIV Infections'
p27
sg12
(dp28
I1986
I1
sI1988
I4
sI1989
I14
sI1990
I45
sI1991
I57
sI1992
I74
sI1993
I76
sI1994
I99
sI1995
I70
sI1996
I68
sI1997
I63
sI1998
I71
sI1999
I65
sI2000
I71
sI2001
I91
sI2002
I92
sI2003
I100
sI2004
I93
sI2005
I124
sI2006
I115
sI2007
I110
sI2008
I140
sI2009
I162
sI2010
I137
sI2011
I158
sI2012
I180
sI2013
I194
sI2014
I205
sI2015
I201
ssb(dp29
s(ipubmed_timeline
Term
p30
(dp31
g10
S'complications'
p32
sg12
(dp33
I1933
I1
sI1945
I3
sI1946
I24
sI1947
I26
sI1948
I29
sI1949
I21
sI1950
I4
sI1951
I35
sI1952
I78
sI1953
I149
sI1954
I106
sI1955
I130
sI1956
I138
sI1957
I76
sI1958
I82
sI1959
I84
sI1960
I86
sI1961
I65
sI1962
I38
sI1963
I2
sI1964
I1
sI1965
I55
sI1966
I202
sI1967
I234
sI1968
I259
sI1969
I335
sI1970
I300
sI1971
I375
sI1972
I282
sI1973
I358
sI1974
I280
sI1975
I294
sI1976
I203
sI1977
I208
sI1978
I214
sI1979
I146
sI1980
I130
sI1981
I122
sI1982
I171
sI1983
I199
sI1984
I138
sI1985
I132
sI1986
I156
sI1987
I134
sI1988
I201
sI1989
I256
sI1990
I277
sI1991
I260
sI1992
I273
sI1993
I263
sI1994
I264
sI1995
I188
sI1996
I212
sI1997
I162
sI1998
I157
sI1999
I202
sI2000
I198
sI2001
I203
sI2002
I181
sI2003
I178
sI2004
I136
sI2005
I244
sI2006
I193
sI2007
I212
sI2008
I230
sI2009
I289
sI2010
I266
sI2011
I280
sI2012
I215
sI2013
I238
sI2014
I254
sI2015
I238
ssb(dp34
s(ipubmed_timeline
Term
p35
(dp36
g10
S'Syphilis Serodiagnosis'
p37
sg12
(dp38
I1942
I1
sI1945
I29
sI1946
I103
sI1947
I95
sI1948
I87
sI1949
I49
sI1950
I36
sI1951
I40
sI1952
I33
sI1953
I33
sI1954
I34
sI1955
I29
sI1956
I26
sI1957
I18
sI1958
I23
sI1959
I19
sI1960
I9
sI1961
I12
sI1962
I50
sI1963
I114
sI1964
I156
sI1965
I150
sI1966
I109
sI1967
I136
sI1968
I182
sI1969
I153
sI1970
I148
sI1971
I167
sI1972
I141
sI1973
I115
sI1974
I121
sI1975
I89
sI1976
I91
sI1977
I81
sI1978
I96
sI1979
I91
sI1980
I75
sI1981
I78
sI1982
I108
sI1983
I72
sI1984
I78
sI1985
I69
sI1986
I46
sI1987
I62
sI1988
I63
sI1989
I94
sI1990
I70
sI1991
I69
sI1992
I68
sI1993
I48
sI1994
I53
sI1995
I36
sI1996
I34
sI1997
I25
sI1998
I28
sI1999
I29
sI2000
I30
sI2001
I37
sI2002
I37
sI2003
I34
sI2004
I46
sI2005
I48
sI2006
I53
sI2007
I55
sI2008
I69
sI2009
I64
sI2010
I48
sI2011
I44
sI2012
I55
sI2013
I65
sI2014
I61
sI2015
I55
ssb(dp39
s(ipubmed_timeline
Term
p40
(dp41
g10
VINMUNOLOGY
p42
sg12
(dp43
I1945
I1
sI1948
I8
sI1949
I1
sI1951
I2
sI1952
I4
sI1953
I18
sI1954
I21
sI1955
I28
sI1956
I32
sI1957
I38
sI1958
I39
sI1959
I34
sI1960
I18
sI1961
I38
sI1962
I20
sI1964
I1
sI1965
I26
sI1966
I80
sI1967
I92
sI1968
I117
sI1969
I155
sI1970
I123
sI1971
I195
sI1972
I215
sI1973
I172
sI1974
I238
sI1975
I228
sI1976
I192
sI1977
I147
sI1978
I136
sI1979
I142
sI1980
I190
sI1981
I136
sI1982
I213
sI1983
I228
sI1984
I250
sI1985
I308
sI1986
I231
sI1987
I189
sI1988
I224
sI1989
I230
sI1990
I231
sI1991
I251
sI1992
I226
sI1993
I190
sI1994
I197
sI1995
I169
sI1996
I156
sI1997
I149
sI1998
I184
sI1999
I157
sI2000
I105
sI2001
I110
sI2002
I89
sI2003
I109
sI2004
I107
sI2005
I133
sI2006
I98
sI2007
I131
sI2008
I132
sI2009
I142
sI2010
I112
sI2011
I147
sI2012
I128
sI2013
I169
sI2014
I153
sI2015
I138
ssb(dp44
s(ipubmed_timeline
Term
p45
(dp46
g10
S'etiology'
p47
sg12
(dp48
I1928
I3
sI1945
I5
sI1946
I10
sI1947
I15
sI1948
I5
sI1949
I2
sI1950
I3
sI1951
I12
sI1952
I27
sI1953
I27
sI1954
I29
sI1955
I22
sI1956
I24
sI1957
I15
sI1958
I14
sI1959
I31
sI1960
I29
sI1961
I23
sI1962
I26
sI1963
I5
sI1964
I9
sI1965
I25
sI1966
I95
sI1967
I134
sI1968
I127
sI1969
I155
sI1970
I178
sI1971
I191
sI1972
I166
sI1973
I159
sI1974
I179
sI1975
I146
sI1976
I145
sI1977
I130
sI1978
I141
sI1979
I113
sI1980
I108
sI1981
I116
sI1982
I128
sI1983
I140
sI1984
I137
sI1985
I135
sI1986
I126
sI1987
I108
sI1988
I119
sI1989
I140
sI1990
I118
sI1991
I114
sI1992
I121
sI1993
I119
sI1994
I110
sI1995
I90
sI1996
I88
sI1997
I75
sI1998
I84
sI1999
I77
sI2000
I71
sI2001
I88
sI2002
I118
sI2003
I119
sI2004
I138
sI2005
I138
sI2006
I172
sI2007
I125
sI2008
I122
sI2009
I132
sI2010
I121
sI2011
I114
sI2012
I174
sI2013
I162
sI2014
I107
sI2015
I118
sI1912
I1
sI1915
I1
ssb(dp49
s(ipubmed_timeline
Term
p50
(dp51
g10
S'Gonorrhea'
p52
sg12
(dp53
I1945
I8
sI1946
I11
sI1947
I6
sI1948
I9
sI1949
I10
sI1950
I14
sI1951
I11
sI1952
I9
sI1953
I1
sI1954
I3
sI1955
I5
sI1956
I1
sI1957
I5
sI1958
I1
sI1959
I4
sI1960
I1
sI1961
I2
sI1962
I4
sI1963
I18
sI1964
I29
sI1965
I21
sI1966
I30
sI1967
I23
sI1968
I24
sI1969
I30
sI1970
I35
sI1971
I53
sI1972
I45
sI1973
I69
sI1974
I41
sI1975
I47
sI1976
I44
sI1977
I32
sI1978
I30
sI1979
I39
sI1980
I43
sI1981
I26
sI1982
I29
sI1983
I31
sI1984
I42
sI1985
I36
sI1986
I36
sI1987
I29
sI1988
I23
sI1989
I25
sI1990
I50
sI1991
I30
sI1992
I26
sI1993
I26
sI1994
I25
sI1995
I21
sI1996
I25
sI1997
I13
sI1998
I22
sI1999
I32
sI2000
I27
sI2001
I28
sI2002
I31
sI2003
I34
sI2004
I21
sI2005
I30
sI2006
I23
sI2007
I34
sI2008
I22
sI2009
I26
sI2010
I25
sI2011
I30
sI2012
I40
sI2013
I44
sI2014
I46
sI2015
I38
ssb(dp54
s(ipubmed_timeline
Term
p55
(dp56
g10
S'Prevalence'
p57
sg12
(dp58
I1948
I1
sI1949
I3
sI1951
I1
sI1953
I1
sI1954
I3
sI1956
I1
sI1960
I1
sI1961
I1
sI1962
I1
sI1963
I1
sI1964
I1
sI1972
I1
sI1976
I1
sI1980
I4
sI1984
I5
sI1985
I4
sI1986
I3
sI1987
I4
sI1988
I2
sI1989
I11
sI1990
I38
sI1991
I40
sI1992
I49
sI1993
I50
sI1994
I63
sI1995
I54
sI1996
I43
sI1997
I52
sI1998
I59
sI1999
I51
sI2000
I44
sI2001
I60
sI2002
I67
sI2003
I64
sI2004
I42
sI2005
I54
sI2006
I62
sI2007
I60
sI2008
I72
sI2009
I77
sI2010
I78
sI2011
I82
sI2012
I112
sI2013
I117
sI2014
I129
sI2015
I99
ssb(dp59
s(ipubmed_timeline
Term
p60
(dp61
g10
S'Risk Factors'
p62
sg12
(dp63
I1978
I1
sI1986
I1
sI1987
I6
sI1988
I18
sI1989
I26
sI1990
I41
sI1991
I51
sI1992
I60
sI1993
I56
sI1994
I77
sI1995
I54
sI1996
I60
sI1997
I46
sI1998
I44
sI1999
I45
sI2000
I46
sI2001
I66
sI2002
I54
sI2003
I64
sI2004
I48
sI2005
I71
sI2006
I67
sI2007
I55
sI2008
I61
sI2009
I69
sI2010
I84
sI2011
I59
sI2012
I85
sI2013
I80
sI2014
I107
sI2015
I78
ssb(dp64
s(ipubmed_timeline
Term
p65
(dp66
g10
S'Sexually Transmitted Diseases'
p67
sg12
(dp68
I1945
I4
sI1946
I13
sI1947
I14
sI1948
I8
sI1949
I34
sI1950
I22
sI1951
I6
sI1952
I7
sI1953
I3
sI1954
I8
sI1955
I6
sI1956
I1
sI1957
I4
sI1958
I9
sI1959
I2
sI1960
I10
sI1961
I2
sI1962
I3
sI1963
I8
sI1964
I23
sI1965
I10
sI1966
I12
sI1967
I11
sI1968
I16
sI1969
I21
sI1970
I22
sI1971
I29
sI1972
I30
sI1973
I34
sI1974
I33
sI1975
I27
sI1976
I32
sI1977
I20
sI1978
I21
sI1979
I25
sI1980
I38
sI1981
I29
sI1982
I38
sI1983
I27
sI1984
I37
sI1985
I41
sI1986
I40
sI1987
I29
sI1988
I43
sI1989
I56
sI1990
I85
sI1991
I65
sI1992
I88
sI1993
I91
sI1994
I106
sI1995
I85
sI1996
I88
sI1997
I82
sI1998
I79
sI1999
I73
sI2000
I57
sI2001
I66
sI2002
I98
sI2003
I79
sI2004
I51
sI2005
I83
sI2006
I74
sI2007
I81
sI2008
I81
sI2009
I88
sI2010
I73
sI2011
I73
sI2012
I83
sI2013
I90
sI2014
I78
sI2015
I61
ssb(dp69
s(ipubmed_timeline
Term
p70
(dp71
g10
S'Animals'
p72
sg12
(dp73
I1945
I3
sI1946
I17
sI1947
I15
sI1948
I15
sI1949
I6
sI1950
I27
sI1951
I19
sI1952
I12
sI1953
I13
sI1954
I17
sI1955
I11
sI1956
I16
sI1957
I11
sI1958
I7
sI1959
I7
sI1960
I5
sI1961
I7
sI1962
I3
sI1963
I18
sI1964
I23
sI1965
I22
sI1966
I25
sI1967
I35
sI1968
I40
sI1969
I41
sI1970
I28
sI1971
I38
sI1972
I49
sI1973
I29
sI1974
I28
sI1975
I26
sI1976
I26
sI1977
I35
sI1978
I19
sI1979
I30
sI1980
I33
sI1981
I34
sI1982
I31
sI1983
I35
sI1984
I34
sI1985
I44
sI1986
I26
sI1987
I28
sI1988
I29
sI1989
I22
sI1990
I21
sI1991
I37
sI1992
I30
sI1993
I22
sI1994
I18
sI1995
I17
sI1996
I12
sI1997
I15
sI1998
I15
sI1999
I19
sI2000
I17
sI2001
I21
sI2002
I12
sI2003
I13
sI2004
I22
sI2005
I21
sI2006
I20
sI2007
I16
sI2008
I19
sI2009
I14
sI2010
I16
sI2011
I13
sI2012
I9
sI2013
I22
sI2014
I11
sI2015
I16
ssb(dp74
s(ipubmed_timeline
Term
p75
(dp76
g10
Vstudy
p77
sg12
(dp78
I1908
I1
sI1910
I1
sI1912
I1
sI1913
I1
sI1916
I1
sI1920
I1
sI1922
I1
sI1926
I1
sI1927
I1
sI1928
I1
sI1929
I1
sI1930
I1
sI1937
I1
sI1938
I2
sI1939
I1
sI1940
I1
sI1944
I1
sI1945
I2
sI1946
I10
sI1947
I7
sI1948
I9
sI1949
I18
sI1950
I19
sI1951
I22
sI1952
I16
sI1953
I26
sI1954
I22
sI1955
I14
sI1956
I12
sI1957
I13
sI1958
I14
sI1959
I10
sI1960
I10
sI1961
I7
sI1962
I17
sI1963
I15
sI1964
I23
sI1965
I9
sI1966
I10
sI1967
I15
sI1968
I23
sI1969
I23
sI1970
I16
sI1971
I16
sI1972
I17
sI1973
I17
sI1974
I18
sI1975
I9
sI1976
I9
sI1977
I13
sI1978
I13
sI1979
I9
sI1980
I13
sI1981
I8
sI1982
I10
sI1983
I7
sI1984
I16
sI1985
I8
sI1986
I5
sI1987
I10
sI1988
I6
sI1989
I11
sI1990
I9
sI1991
I14
sI1992
I15
sI1993
I14
sI1994
I13
sI1995
I15
sI1996
I17
sI1997
I12
sI1998
I14
sI1999
I16
sI2000
I15
sI2001
I9
sI2002
I15
sI2003
I15
sI2004
I12
sI2005
I12
sI2006
I24
sI2007
I26
sI2008
I13
sI2009
I16
sI2010
I16
sI2011
I20
sI2012
I31
sI2013
I24
sI2014
I45
sI2015
I38
ssb(dp79
s(ipubmed_timeline
Term
p80
(dp81
g10
Vsyphilitic
p82
sg12
(dp83
I1920
I1
sI1923
I1
sI1926
I1
sI1927
I1
sI1945
I6
sI1946
I48
sI1947
I29
sI1948
I46
sI1949
I34
sI1950
I59
sI1951
I83
sI1952
I50
sI1953
I51
sI1954
I44
sI1955
I31
sI1956
I42
sI1957
I28
sI1958
I34
sI1959
I28
sI1960
I32
sI1961
I25
sI1962
I21
sI1963
I30
sI1964
I38
sI1965
I27
sI1966
I24
sI1967
I28
sI1968
I20
sI1969
I24
sI1970
I24
sI1971
I23
sI1972
I14
sI1973
I18
sI1974
I16
sI1975
I19
sI1976
I20
sI1977
I15
sI1978
I17
sI1979
I20
sI1980
I21
sI1981
I20
sI1982
I21
sI1983
I21
sI1984
I25
sI1985
I8
sI1986
I20
sI1987
I24
sI1988
I17
sI1989
I23
sI1990
I20
sI1991
I12
sI1992
I14
sI1993
I10
sI1994
I13
sI1995
I14
sI1996
I11
sI1997
I13
sI1998
I10
sI1999
I8
sI2000
I13
sI2001
I8
sI2002
I14
sI2003
I17
sI2004
I16
sI2005
I13
sI2006
I15
sI2007
I11
sI2008
I16
sI2009
I32
sI2010
I28
sI2011
I37
sI2012
I26
sI2013
I33
sI2014
I29
sI2015
I19
sI1873
I1
sI1916
I1
sI1917
I1
ssb(dp84
s(ipubmed_timeline
Term
p85
(dp86
g10
VHISTORY
p87
sg12
(dp88
I1878
I1
sI1935
I1
sI1940
I1
sI1945
I5
sI1946
I19
sI1947
I25
sI1948
I16
sI1949
I1
sI1950
I3
sI1951
I13
sI1952
I23
sI1953
I15
sI1954
I14
sI1955
I26
sI1956
I31
sI1957
I10
sI1958
I14
sI1959
I1
sI1960
I13
sI1961
I9
sI1962
I4
sI1963
I8
sI1964
I22
sI1965
I12
sI1966
I22
sI1967
I25
sI1968
I25
sI1969
I66
sI1970
I37
sI1971
I70
sI1972
I79
sI1973
I82
sI1974
I51
sI1975
I48
sI1976
I36
sI1977
I50
sI1978
I52
sI1979
I41
sI1980
I38
sI1981
I40
sI1982
I52
sI1983
I47
sI1984
I41
sI1985
I43
sI1986
I54
sI1987
I28
sI1988
I57
sI1989
I40
sI1990
I64
sI1991
I61
sI1992
I63
sI1993
I83
sI1994
I94
sI1995
I125
sI1996
I88
sI1997
I48
sI1998
I67
sI1999
I105
sI2000
I131
sI2001
I175
sI2002
I87
sI2003
I135
sI2004
I99
sI2005
I78
sI2006
I146
sI2007
I105
sI2008
I162
sI2009
I188
sI2010
I197
sI2011
I186
sI2012
I112
sI2013
I146
sI2014
I134
sI2015
I135
sI1886
I4
sI1909
I1
sI1910
I1
sI1876
I1
ssb(dp89
s(ipubmed_timeline
Term
p90
(dp91
g10
Vpatients
p92
sg12
(dp93
I1925
I1
sI1926
I1
sI1943
I1
sI1944
I1
sI1945
I2
sI1946
I7
sI1947
I4
sI1948
I7
sI1949
I12
sI1950
I13
sI1951
I14
sI1952
I11
sI1953
I6
sI1954
I14
sI1955
I7
sI1956
I6
sI1957
I7
sI1958
I9
sI1959
I17
sI1960
I10
sI1961
I15
sI1962
I15
sI1963
I10
sI1964
I16
sI1965
I14
sI1966
I23
sI1967
I18
sI1968
I12
sI1969
I16
sI1970
I21
sI1971
I14
sI1972
I15
sI1973
I14
sI1974
I17
sI1975
I23
sI1976
I11
sI1977
I13
sI1978
I10
sI1979
I10
sI1980
I13
sI1981
I16
sI1982
I16
sI1983
I25
sI1984
I25
sI1985
I21
sI1986
I22
sI1987
I21
sI1988
I33
sI1989
I26
sI1990
I31
sI1991
I19
sI1992
I16
sI1993
I23
sI1994
I28
sI1995
I21
sI1996
I27
sI1997
I13
sI1998
I12
sI1999
I16
sI2000
I18
sI2001
I15
sI2002
I7
sI2003
I21
sI2004
I15
sI2005
I21
sI2006
I22
sI2007
I20
sI2008
I20
sI2009
I26
sI2010
I28
sI2011
I26
sI2012
I38
sI2013
I37
sI2014
I34
sI2015
I36
ssb(dp94
s(ipubmed_timeline
Term
p95
(dp96
g10
VDIAGNOSIS
p97
sg12
(dp98
I1905
I1
sI1908
I1
sI1909
I5
sI1911
I7
sI1912
I2
sI1913
I2
sI1914
I2
sI1915
I3
sI1917
I4
sI1918
I2
sI1920
I1
sI1921
I20
sI1922
I2
sI1923
I2
sI1924
I2
sI1926
I2
sI1927
I1
sI1928
I6
sI1929
I2
sI1931
I3
sI1933
I2
sI1934
I2
sI1937
I1
sI1939
I2
sI1940
I1
sI1942
I1
sI1944
I2
sI1945
I26
sI1946
I55
sI1947
I69
sI1948
I108
sI1949
I33
sI1950
I38
sI1951
I207
sI1952
I456
sI1953
I382
sI1954
I350
sI1955
I342
sI1956
I375
sI1957
I248
sI1958
I266
sI1959
I140
sI1960
I196
sI1961
I141
sI1962
I107
sI1963
I41
sI1964
I80
sI1965
I107
sI1966
I181
sI1967
I225
sI1968
I285
sI1969
I292
sI1970
I309
sI1971
I431
sI1972
I328
sI1973
I376
sI1974
I315
sI1975
I281
sI1976
I297
sI1977
I215
sI1978
I218
sI1979
I317
sI1980
I233
sI1981
I310
sI1982
I248
sI1983
I342
sI1984
I322
sI1985
I315
sI1986
I268
sI1987
I236
sI1988
I174
sI1989
I227
sI1990
I290
sI1991
I235
sI1992
I273
sI1993
I331
sI1994
I283
sI1995
I243
sI1996
I259
sI1997
I218
sI1998
I298
sI1999
I284
sI2000
I298
sI2001
I268
sI2002
I273
sI2003
I321
sI2004
I340
sI2005
I409
sI2006
I474
sI2007
I378
sI2008
I449
sI2009
I515
sI2010
I571
sI2011
I562
sI2012
I610
sI2013
I653
sI2014
I603
sI2015
I564
ssb(dp99
s(ipubmed_timeline
Term
p100
(dp101
g10
S'transmission'
p102
sg12
(dp103
I1927
I1
sI1934
I1
sI1939
I1
sI1945
I9
sI1946
I7
sI1947
I14
sI1948
I13
sI1949
I9
sI1950
I5
sI1951
I7
sI1952
I1
sI1953
I18
sI1954
I17
sI1955
I3
sI1956
I10
sI1957
I8
sI1958
I18
sI1959
I2
sI1960
I7
sI1961
I6
sI1962
I1
sI1963
I1
sI1965
I1
sI1969
I1
sI1970
I1
sI1971
I2
sI1972
I1
sI1973
I3
sI1974
I11
sI1975
I22
sI1976
I30
sI1977
I17
sI1978
I26
sI1979
I36
sI1980
I32
sI1981
I54
sI1982
I80
sI1983
I52
sI1984
I85
sI1985
I49
sI1986
I31
sI1987
I30
sI1988
I33
sI1989
I68
sI1990
I50
sI1991
I62
sI1992
I47
sI1993
I78
sI1994
I73
sI1995
I91
sI1996
I67
sI1997
I50
sI1998
I86
sI1999
I91
sI2000
I77
sI2001
I103
sI2002
I79
sI2003
I61
sI2004
I58
sI2005
I103
sI2006
I80
sI2007
I110
sI2008
I90
sI2009
I122
sI2010
I94
sI2011
I121
sI2012
I135
sI2013
I137
sI2014
I97
sI2015
I118
sI1874
I1
ssb(dp104
s(ipubmed_timeline
Term
p105
(dp106
g10
S'prevention & control'
p107
sg12
(dp108
I1945
I4
sI1946
I16
sI1947
I7
sI1948
I13
sI1949
I15
sI1951
I16
sI1952
I44
sI1953
I33
sI1954
I35
sI1955
I27
sI1956
I21
sI1957
I18
sI1958
I13
sI1959
I10
sI1960
I9
sI1961
I1
sI1962
I6
sI1963
I1
sI1965
I17
sI1966
I42
sI1967
I25
sI1968
I34
sI1969
I42
sI1970
I32
sI1971
I71
sI1972
I43
sI1973
I73
sI1974
I31
sI1975
I31
sI1976
I32
sI1977
I23
sI1978
I22
sI1979
I23
sI1980
I36
sI1981
I27
sI1982
I29
sI1983
I37
sI1984
I39
sI1985
I57
sI1986
I48
sI1987
I37
sI1988
I58
sI1989
I40
sI1990
I69
sI1991
I95
sI1992
I55
sI1993
I103
sI1994
I115
sI1995
I75
sI1996
I71
sI1997
I76
sI1998
I105
sI1999
I105
sI2000
I108
sI2001
I129
sI2002
I153
sI2003
I141
sI2004
I137
sI2005
I130
sI2006
I141
sI2007
I157
sI2008
I141
sI2009
I161
sI2010
I141
sI2011
I158
sI2012
I185
sI2013
I251
sI2014
I187
sI2015
I156
ssb(dp109
s(ipubmed_timeline
Term
p110
(dp111
g10
S'Pregnancy'
p112
sg12
(dp113
I1945
I5
sI1946
I18
sI1947
I35
sI1948
I14
sI1949
I24
sI1950
I54
sI1951
I44
sI1952
I43
sI1953
I34
sI1954
I23
sI1955
I19
sI1956
I24
sI1957
I13
sI1958
I9
sI1959
I10
sI1960
I5
sI1961
I6
sI1962
I12
sI1963
I23
sI1964
I28
sI1965
I16
sI1966
I31
sI1967
I15
sI1968
I28
sI1969
I38
sI1970
I26
sI1971
I33
sI1972
I40
sI1973
I43
sI1974
I32
sI1975
I44
sI1976
I41
sI1977
I25
sI1978
I27
sI1979
I35
sI1980
I19
sI1981
I30
sI1982
I35
sI1983
I28
sI1984
I36
sI1985
I36
sI1986
I32
sI1987
I28
sI1988
I30
sI1989
I48
sI1990
I57
sI1991
I59
sI1992
I52
sI1993
I62
sI1994
I72
sI1995
I65
sI1996
I43
sI1997
I36
sI1998
I53
sI1999
I45
sI2000
I42
sI2001
I63
sI2002
I47
sI2003
I38
sI2004
I63
sI2005
I47
sI2006
I57
sI2007
I76
sI2008
I49
sI2009
I50
sI2010
I58
sI2011
I58
sI2012
I64
sI2013
I73
sI2014
I66
sI2015
I76
ssb(dp114
s(ipubmed_timeline
Term
p115
(dp116
g10
VDRUG
p117
sg12
(dp118
I1947
I1
sI1948
I7
sI1951
I2
sI1953
I3
sI1954
I3
sI1955
I1
sI1956
I1
sI1957
I1
sI1958
I1
sI1964
I1
sI1965
I74
sI1966
I119
sI1967
I154
sI1968
I128
sI1969
I158
sI1970
I141
sI1971
I197
sI1972
I155
sI1973
I182
sI1974
I171
sI1975
I145
sI1976
I197
sI1977
I121
sI1978
I94
sI1979
I144
sI1980
I101
sI1981
I98
sI1982
I136
sI1983
I130
sI1984
I171
sI1985
I130
sI1986
I132
sI1987
I118
sI1988
I128
sI1989
I146
sI1990
I163
sI1991
I129
sI1992
I107
sI1993
I143
sI1994
I114
sI1995
I126
sI1996
I100
sI1997
I88
sI1998
I95
sI1999
I150
sI2000
I101
sI2001
I76
sI2002
I134
sI2003
I131
sI2004
I165
sI2005
I143
sI2006
I188
sI2007
I144
sI2008
I139
sI2009
I225
sI2010
I209
sI2011
I218
sI2012
I240
sI2013
I256
sI2014
I209
sI2015
I222
ssb(dp119
s(ipubmed_timeline
Term
p120
(dp121
g10
S'United States'
p122
sg12
(dp123
I1945
I2
sI1946
I1
sI1947
I5
sI1948
I1
sI1949
I3
sI1950
I5
sI1951
I12
sI1952
I3
sI1953
I3
sI1954
I5
sI1955
I1
sI1956
I1
sI1957
I1
sI1958
I1
sI1959
I1
sI1961
I1
sI1962
I1
sI1963
I10
sI1964
I11
sI1965
I8
sI1966
I8
sI1967
I9
sI1968
I9
sI1969
I14
sI1970
I10
sI1971
I14
sI1972
I11
sI1973
I26
sI1974
I14
sI1975
I13
sI1976
I6
sI1977
I11
sI1978
I12
sI1979
I4
sI1980
I13
sI1981
I16
sI1982
I16
sI1983
I12
sI1984
I18
sI1985
I15
sI1986
I13
sI1987
I10
sI1988
I24
sI1989
I22
sI1990
I23
sI1991
I38
sI1992
I39
sI1993
I29
sI1994
I38
sI1995
I25
sI1996
I28
sI1997
I23
sI1998
I23
sI1999
I33
sI2000
I25
sI2001
I47
sI2002
I37
sI2003
I34
sI2004
I21
sI2005
I33
sI2006
I26
sI2007
I24
sI2008
I28
sI2009
I15
sI2010
I28
sI2011
I25
sI2012
I27
sI2013
I36
sI2014
I25
sI2015
I28
ssb(dp124
s(ipubmed_timeline
Term
p125
(dp126
g10
S'Diagnosis, Differential'
p127
sg12
(dp128
I1947
I1
sI1948
I3
sI1949
I2
sI1950
I4
sI1951
I2
sI1952
I6
sI1953
I10
sI1954
I16
sI1955
I7
sI1956
I16
sI1957
I4
sI1958
I8
sI1959
I2
sI1960
I2
sI1962
I2
sI1963
I28
sI1964
I58
sI1965
I22
sI1966
I30
sI1967
I36
sI1968
I46
sI1969
I37
sI1970
I31
sI1971
I48
sI1972
I42
sI1973
I35
sI1974
I32
sI1975
I30
sI1976
I25
sI1977
I23
sI1978
I16
sI1979
I35
sI1980
I32
sI1981
I34
sI1982
I33
sI1983
I24
sI1984
I33
sI1985
I26
sI1986
I24
sI1987
I28
sI1988
I25
sI1989
I24
sI1990
I23
sI1991
I32
sI1992
I25
sI1993
I35
sI1994
I26
sI1995
I32
sI1996
I30
sI1997
I14
sI1998
I29
sI1999
I27
sI2000
I31
sI2001
I29
sI2002
I35
sI2003
I31
sI2004
I52
sI2005
I39
sI2006
I48
sI2007
I27
sI2008
I48
sI2009
I42
sI2010
I48
sI2011
I49
sI2012
I51
sI2013
I64
sI2014
I48
sI2015
I51
ssb(dp129
s(ipubmed_timeline
Term
p130
(dp131
g10
S'therapy'
p132
sg12
(dp133
I1923
I1
sI1924
I1
sI1925
I1
sI1927
I1
sI1929
I3
sI1930
I1
sI1933
I1
sI1935
I1
sI1936
I3
sI1941
I1
sI1943
I1
sI1944
I2
sI1945
I222
sI1946
I637
sI1947
I532
sI1948
I530
sI1949
I323
sI1950
I103
sI1951
I306
sI1952
I413
sI1953
I327
sI1954
I264
sI1955
I253
sI1956
I155
sI1957
I155
sI1958
I142
sI1959
I155
sI1960
I137
sI1961
I186
sI1962
I99
sI1963
I12
sI1964
I17
sI1965
I16
sI1966
I13
sI1967
I31
sI1968
I52
sI1969
I56
sI1970
I40
sI1971
I38
sI1972
I27
sI1973
I42
sI1974
I50
sI1975
I47
sI1976
I38
sI1977
I35
sI1978
I18
sI1979
I20
sI1980
I39
sI1981
I21
sI1982
I32
sI1983
I30
sI1984
I23
sI1985
I28
sI1986
I30
sI1987
I16
sI1988
I31
sI1989
I29
sI1990
I64
sI1991
I38
sI1992
I42
sI1993
I60
sI1994
I61
sI1995
I50
sI1996
I24
sI1997
I43
sI1998
I75
sI1999
I69
sI2000
I35
sI2001
I56
sI2002
I63
sI2003
I65
sI2004
I72
sI2005
I45
sI2006
I71
sI2007
I62
sI2008
I45
sI2009
I44
sI2010
I95
sI2011
I58
sI2012
I48
sI2013
I99
sI2014
I77
sI2015
I50
sI1913
I1
sI1918
I1
ssb(dp134
s(ipubmed_timeline
Term
p135
(dp136
g10
S'Treponema pallidum'
p137
sg12
(dp138
I1946
I4
sI1947
I3
sI1948
I6
sI1949
I4
sI1950
I9
sI1951
I12
sI1952
I8
sI1953
I19
sI1954
I19
sI1955
I22
sI1956
I22
sI1957
I27
sI1958
I13
sI1959
I14
sI1960
I5
sI1961
I11
sI1962
I5
sI1963
I11
sI1964
I20
sI1965
I12
sI1966
I12
sI1967
I41
sI1968
I42
sI1969
I52
sI1970
I42
sI1971
I42
sI1972
I61
sI1973
I48
sI1974
I53
sI1975
I60
sI1976
I50
sI1977
I46
sI1978
I38
sI1979
I45
sI1980
I50
sI1981
I40
sI1982
I53
sI1983
I62
sI1984
I46
sI1985
I57
sI1986
I42
sI1987
I31
sI1988
I38
sI1989
I42
sI1990
I41
sI1991
I39
sI1992
I35
sI1993
I29
sI1994
I29
sI1995
I29
sI1996
I26
sI1997
I27
sI1998
I34
sI1999
I32
sI2000
I47
sI2001
I31
sI2002
I36
sI2003
I29
sI2004
I45
sI2005
I46
sI2006
I70
sI2007
I57
sI2008
I73
sI2009
I68
sI2010
I77
sI2011
I84
sI2012
I90
sI2013
I141
sI2014
I122
sI2015
I114
ssb(dp139
s(ipubmed_timeline
Term
p140
(dp141
g10
Vtreatment
p142
sg12
(dp143
I1817
I1
sI1843
I1
sI1856
I1
sI1868
I1
sI1869
I2
sI1872
I2
sI1874
I2
sI1875
I2
sI1879
I1
sI1883
I1
sI1884
I1
sI1896
I2
sI1897
I2
sI1898
I2
sI1903
I2
sI1905
I1
sI1907
I1
sI1908
I4
sI1909
I13
sI1910
I11
sI1911
I4
sI1912
I6
sI1913
I4
sI1914
I5
sI1915
I5
sI1916
I6
sI1917
I8
sI1918
I6
sI1919
I4
sI1920
I4
sI1921
I20
sI1922
I8
sI1923
I4
sI1924
I4
sI1925
I2
sI1926
I8
sI1927
I7
sI1928
I4
sI1929
I4
sI1930
I4
sI1931
I5
sI1932
I5
sI1933
I5
sI1934
I7
sI1935
I6
sI1936
I8
sI1937
I3
sI1938
I3
sI1939
I3
sI1940
I5
sI1941
I6
sI1942
I3
sI1943
I4
sI1944
I4
sI1945
I28
sI1946
I110
sI1947
I107
sI1948
I101
sI1949
I98
sI1950
I137
sI1951
I99
sI1952
I65
sI1953
I63
sI1954
I60
sI1955
I52
sI1956
I44
sI1957
I31
sI1958
I32
sI1959
I39
sI1960
I18
sI1961
I29
sI1962
I33
sI1963
I34
sI1964
I45
sI1965
I45
sI1966
I26
sI1967
I26
sI1968
I21
sI1969
I25
sI1970
I14
sI1971
I33
sI1972
I35
sI1973
I33
sI1974
I16
sI1975
I20
sI1976
I51
sI1977
I20
sI1978
I12
sI1979
I21
sI1980
I17
sI1981
I21
sI1982
I16
sI1983
I17
sI1984
I22
sI1985
I14
sI1986
I23
sI1987
I22
sI1988
I18
sI1989
I21
sI1990
I15
sI1991
I16
sI1992
I6
sI1993
I9
sI1994
I14
sI1995
I15
sI1996
I10
sI1997
I12
sI1998
I11
sI1999
I16
sI2000
I15
sI2001
I11
sI2002
I12
sI2003
I14
sI2004
I19
sI2005
I9
sI2006
I9
sI2007
I16
sI2008
I11
sI2009
I13
sI2010
I14
sI2011
I12
sI2012
I19
sI2013
I14
sI2014
I21
sI2015
I24
ssb(dp144
s(ipubmed_timeline
Term
p145
(dp146
g10
VSYPHILIS
p147
sg12
(dp148
I1817
I1
sI1827
I1
sI1841
I2
sI1842
I1
sI1843
I2
sI1852
I1
sI1856
I1
sI1862
I1
sI1863
I1
sI1864
I2
sI1865
I4
sI1866
I1
sI1868
I3
sI1869
I3
sI1871
I2
sI1872
I4
sI1873
I3
sI1874
I15
sI1875
I4
sI1876
I4
sI1877
I2
sI1878
I2
sI1879
I3
sI1880
I1
sI1882
I2
sI1883
I1
sI1884
I2
sI1885
I1
sI1886
I4
sI1887
I3
sI1888
I1
sI1889
I6
sI1890
I1
sI1891
I1
sI1892
I1
sI1893
I1
sI1895
I1
sI1896
I3
sI1897
I3
sI1898
I2
sI1899
I1
sI1900
I2
sI1901
I3
sI1902
I1
sI1903
I5
sI1904
I1
sI1905
I7
sI1906
I7
sI1907
I4
sI1908
I18
sI1909
I33
sI1910
I25
sI1911
I36
sI1912
I39
sI1913
I30
sI1914
I18
sI1915
I22
sI1916
I25
sI1917
I19
sI1918
I23
sI1919
I11
sI1920
I20
sI1921
I38
sI1922
I20
sI1923
I25
sI1924
I22
sI1925
I22
sI1926
I31
sI1927
I25
sI1928
I18
sI1929
I33
sI1930
I27
sI1931
I22
sI1932
I21
sI1933
I14
sI1934
I27
sI1935
I25
sI1936
I22
sI1937
I25
sI1938
I27
sI1939
I27
sI1940
I18
sI1941
I13
sI1942
I18
sI1943
I23
sI1944
I18
sI1945
I573
sI1946
I1554
sI1947
I1582
sI1948
I1443
sI1949
I1348
sI1950
I2028
sI1951
I2107
sI1952
I1843
sI1953
I1589
sI1954
I1346
sI1955
I1268
sI1956
I1119
sI1957
I913
sI1958
I858
sI1959
I594
sI1960
I648
sI1961
I574
sI1962
I600
sI1963
I852
sI1964
I1141
sI1965
I732
sI1966
I494
sI1967
I547
sI1968
I480
sI1969
I591
sI1970
I529
sI1971
I605
sI1972
I583
sI1973
I576
sI1974
I477
sI1975
I480
sI1976
I584
sI1977
I449
sI1978
I418
sI1979
I450
sI1980
I468
sI1981
I462
sI1982
I491
sI1983
I475
sI1984
I473
sI1985
I486
sI1986
I427
sI1987
I431
sI1988
I450
sI1989
I496
sI1990
I543
sI1991
I457
sI1992
I488
sI1993
I422
sI1994
I408
sI1995
I380
sI1996
I311
sI1997
I278
sI1998
I349
sI1999
I390
sI2000
I347
sI2001
I408
sI2002
I401
sI2003
I402
sI2004
I476
sI2005
I471
sI2006
I564
sI2007
I519
sI2008
I554
sI2009
I586
sI2010
I622
sI2011
I686
sI2012
I708
sI2013
I933
sI2014
I845
sI2015
I836
ssb(dp149
s(ipubmed_timeline
Term
p150
(dp151
g10
VMETHODS
p152
sg12
(dp153
I1862
I1
sI1871
I3
sI1873
I1
sI1876
I1
sI1908
I1
sI1909
I1
sI1911
I2
sI1912
I2
sI1914
I1
sI1916
I1
sI1917
I1
sI1918
I3
sI1919
I1
sI1920
I2
sI1921
I2
sI1922
I1
sI1924
I2
sI1925
I4
sI1927
I3
sI1929
I2
sI1931
I2
sI1932
I2
sI1937
I3
sI1939
I2
sI1940
I2
sI1941
I1
sI1942
I1
sI1943
I4
sI1944
I1
sI1945
I22
sI1946
I70
sI1947
I28
sI1948
I47
sI1949
I34
sI1950
I41
sI1951
I80
sI1952
I56
sI1953
I48
sI1954
I52
sI1955
I46
sI1956
I44
sI1957
I30
sI1958
I35
sI1959
I28
sI1960
I27
sI1961
I27
sI1962
I21
sI1963
I19
sI1964
I25
sI1965
I23
sI1966
I34
sI1967
I66
sI1968
I103
sI1969
I117
sI1970
I151
sI1971
I161
sI1972
I130
sI1973
I99
sI1974
I156
sI1975
I151
sI1976
I149
sI1977
I142
sI1978
I149
sI1979
I145
sI1980
I138
sI1981
I139
sI1982
I147
sI1983
I165
sI1984
I163
sI1985
I182
sI1986
I152
sI1987
I140
sI1988
I159
sI1989
I156
sI1990
I190
sI1991
I169
sI1992
I155
sI1993
I152
sI1994
I166
sI1995
I190
sI1996
I147
sI1997
I114
sI1998
I170
sI1999
I173
sI2000
I183
sI2001
I226
sI2002
I215
sI2003
I243
sI2004
I228
sI2005
I284
sI2006
I330
sI2007
I318
sI2008
I360
sI2009
I386
sI2010
I377
sI2011
I495
sI2012
I538
sI2013
I543
sI2014
I512
sI2015
I510
ssb(dp154
s(ipubmed_timeline
Term
p155
(dp156
g10
VCLINIC
p157
sg12
(dp158
I1841
I1
sI1864
I2
sI1866
I1
sI1868
I1
sI1876
I1
sI1887
I1
sI1891
I1
sI1894
I1
sI1902
I1
sI1910
I1
sI1914
I2
sI1916
I2
sI1920
I1
sI1921
I1
sI1922
I1
sI1923
I1
sI1924
I2
sI1925
I1
sI1926
I2
sI1927
I1
sI1930
I2
sI1931
I1
sI1937
I2
sI1938
I1
sI1942
I1
sI1945
I2
sI1946
I11
sI1947
I3
sI1948
I7
sI1949
I13
sI1950
I20
sI1951
I27
sI1952
I29
sI1953
I18
sI1954
I20
sI1955
I15
sI1956
I15
sI1957
I11
sI1958
I15
sI1959
I10
sI1960
I16
sI1961
I8
sI1962
I15
sI1963
I21
sI1964
I33
sI1965
I19
sI1966
I21
sI1967
I19
sI1968
I21
sI1969
I15
sI1970
I24
sI1971
I19
sI1972
I18
sI1973
I15
sI1974
I15
sI1975
I11
sI1976
I17
sI1977
I11
sI1978
I12
sI1979
I12
sI1980
I14
sI1981
I17
sI1982
I8
sI1983
I8
sI1984
I19
sI1985
I10
sI1986
I18
sI1987
I10
sI1988
I13
sI1989
I13
sI1990
I16
sI1991
I10
sI1992
I9
sI1993
I14
sI1994
I16
sI1995
I5
sI1996
I11
sI1997
I13
sI1998
I5
sI1999
I11
sI2000
I15
sI2001
I10
sI2002
I11
sI2003
I13
sI2004
I16
sI2005
I22
sI2006
I18
sI2007
I21
sI2008
I22
sI2009
I19
sI2010
I12
sI2011
I24
sI2012
I21
sI2013
I26
sI2014
I26
sI2015
I30
ssb(dp159
s(ipubmed_timeline
Term
p160
(dp161
g10
S'pathology'
p162
sg12
(dp163
I1922
I1
sI1925
I1
sI1932
I1
sI1945
I2
sI1946
I16
sI1947
I9
sI1948
I21
sI1949
I2
sI1951
I9
sI1952
I25
sI1953
I33
sI1954
I12
sI1955
I40
sI1956
I16
sI1957
I12
sI1958
I18
sI1959
I29
sI1960
I42
sI1961
I22
sI1962
I27
sI1963
I4
sI1964
I3
sI1965
I19
sI1966
I30
sI1967
I59
sI1968
I90
sI1969
I117
sI1970
I115
sI1971
I145
sI1972
I158
sI1973
I112
sI1974
I168
sI1975
I134
sI1976
I116
sI1977
I82
sI1978
I133
sI1979
I157
sI1980
I158
sI1981
I135
sI1982
I127
sI1983
I125
sI1984
I136
sI1985
I141
sI1986
I165
sI1987
I130
sI1988
I134
sI1989
I124
sI1990
I150
sI1991
I117
sI1992
I108
sI1993
I137
sI1994
I115
sI1995
I157
sI1996
I118
sI1997
I116
sI1998
I105
sI1999
I93
sI2000
I105
sI2001
I111
sI2002
I80
sI2003
I87
sI2004
I113
sI2005
I143
sI2006
I132
sI2007
I107
sI2008
I151
sI2009
I162
sI2010
I166
sI2011
I254
sI2012
I153
sI2013
I199
sI2014
I150
sI2015
I174
sI1876
I3
sI1918
I1
ssb(dp164
s(ipubmed_timeline
Term
p165
(dp166
g10
S'Anti-Bacterial Agents'
p167
sg12
(dp168
I1947
I1
sI1949
I4
sI1950
I4
sI1951
I7
sI1952
I4
sI1953
I7
sI1954
I7
sI1955
I9
sI1956
I6
sI1957
I7
sI1958
I4
sI1959
I7
sI1960
I5
sI1961
I3
sI1962
I3
sI1963
I13
sI1964
I14
sI1965
I8
sI1966
I8
sI1967
I7
sI1968
I13
sI1969
I16
sI1970
I13
sI1971
I12
sI1972
I11
sI1973
I13
sI1974
I8
sI1975
I9
sI1976
I19
sI1977
I4
sI1978
I7
sI1979
I13
sI1980
I6
sI1981
I5
sI1982
I5
sI1983
I8
sI1984
I16
sI1985
I7
sI1986
I8
sI1987
I8
sI1988
I12
sI1989
I10
sI1990
I10
sI1991
I10
sI1992
I6
sI1993
I9
sI1994
I7
sI1995
I7
sI1996
I10
sI1997
I8
sI1998
I7
sI1999
I9
sI2000
I10
sI2001
I6
sI2002
I19
sI2003
I19
sI2004
I34
sI2005
I35
sI2006
I45
sI2007
I33
sI2008
I47
sI2009
I65
sI2010
I52
sI2011
I52
sI2012
I73
sI2013
I79
sI2014
I68
sI2015
I70
ssb(dp169
s(ipubmed_timeline
Term
p170
(dp171
g10
S'adverse effects'
p172
sg12
(dp173
I1948
I1
sI1953
I3
sI1954
I10
sI1955
I9
sI1956
I4
sI1957
I4
sI1958
I6
sI1959
I3
sI1962
I1
sI1963
I6
sI1964
I9
sI1965
I8
sI1966
I16
sI1967
I25
sI1968
I26
sI1969
I28
sI1970
I19
sI1971
I18
sI1972
I26
sI1973
I29
sI1974
I32
sI1975
I28
sI1976
I31
sI1977
I21
sI1978
I21
sI1979
I17
sI1980
I18
sI1981
I14
sI1982
I12
sI1983
I9
sI1984
I12
sI1985
I41
sI1986
I12
sI1987
I9
sI1988
I11
sI1989
I15
sI1990
I15
sI1991
I14
sI1992
I4
sI1993
I19
sI1994
I20
sI1995
I21
sI1996
I22
sI1997
I9
sI1998
I26
sI1999
I7
sI2000
I27
sI2001
I12
sI2002
I30
sI2003
I24
sI2004
I12
sI2005
I15
sI2006
I30
sI2007
I17
sI2008
I22
sI2009
I32
sI2010
I14
sI2011
I29
sI2012
I24
sI2013
I27
sI2014
I25
sI2015
I37
ssb(dp174
s(ipubmed_timeline
Term
p175
(dp176
g10
S'therapeutic use'
p177
sg12
(dp178
I1946
I1
sI1948
I14
sI1949
I2
sI1950
I8
sI1951
I176
sI1952
I310
sI1953
I307
sI1954
I239
sI1955
I173
sI1956
I112
sI1957
I133
sI1958
I81
sI1959
I26
sI1963
I1
sI1964
I5
sI1965
I79
sI1966
I98
sI1967
I120
sI1968
I126
sI1969
I148
sI1970
I113
sI1971
I191
sI1972
I135
sI1973
I190
sI1974
I141
sI1975
I153
sI1976
I193
sI1977
I76
sI1978
I58
sI1979
I86
sI1980
I59
sI1981
I65
sI1982
I64
sI1983
I86
sI1984
I86
sI1985
I91
sI1986
I62
sI1987
I75
sI1988
I85
sI1989
I68
sI1990
I81
sI1991
I64
sI1992
I56
sI1993
I50
sI1994
I57
sI1995
I98
sI1996
I75
sI1997
I70
sI1998
I74
sI1999
I84
sI2000
I83
sI2001
I69
sI2002
I98
sI2003
I79
sI2004
I121
sI2005
I120
sI2006
I144
sI2007
I103
sI2008
I135
sI2009
I170
sI2010
I143
sI2011
I141
sI2012
I165
sI2013
I212
sI2014
I151
sI2015
I169
ssb(dp179
s(ipubmed_timeline
Term
p180
(dp181
g10
Vinfection
p182
sg12
(dp183
I1920
I3
sI1924
I2
sI1927
I1
sI1928
I2
sI1930
I1
sI1935
I1
sI1945
I1
sI1946
I3
sI1947
I1
sI1948
I4
sI1949
I5
sI1950
I3
sI1951
I8
sI1952
I9
sI1953
I3
sI1954
I4
sI1955
I5
sI1956
I6
sI1957
I6
sI1958
I7
sI1959
I5
sI1960
I8
sI1961
I3
sI1962
I5
sI1963
I4
sI1964
I13
sI1965
I9
sI1966
I5
sI1967
I4
sI1968
I4
sI1969
I8
sI1970
I2
sI1971
I6
sI1972
I7
sI1973
I5
sI1974
I7
sI1975
I7
sI1976
I10
sI1977
I7
sI1978
I7
sI1979
I6
sI1980
I7
sI1981
I11
sI1982
I7
sI1983
I6
sI1984
I15
sI1985
I9
sI1986
I13
sI1987
I14
sI1988
I33
sI1989
I37
sI1990
I42
sI1991
I45
sI1992
I54
sI1993
I46
sI1994
I56
sI1995
I30
sI1996
I34
sI1997
I36
sI1998
I32
sI1999
I30
sI2000
I27
sI2001
I32
sI2002
I19
sI2003
I36
sI2004
I26
sI2005
I29
sI2006
I28
sI2007
I30
sI2008
I39
sI2009
I34
sI2010
I36
sI2011
I45
sI2012
I50
sI2013
I61
sI2014
I65
sI2015
I70
sI1910
I1
sI1914
I1
ssb(dp184
s(ipubmed_timeline
Term
p185
(dp186
g10
VPLACES
p187
sg12
(dp188
I1931
I1
sI1936
I1
sI1937
I1
sI1943
I1
sI1946
I4
sI1947
I2
sI1948
I2
sI1950
I5
sI1951
I7
sI1952
I8
sI1953
I8
sI1954
I7
sI1955
I7
sI1956
I2
sI1957
I5
sI1958
I12
sI1959
I1
sI1960
I3
sI1961
I2
sI1962
I3
sI1963
I5
sI1964
I12
sI1965
I6
sI1966
I12
sI1967
I9
sI1968
I10
sI1969
I5
sI1970
I10
sI1971
I5
sI1972
I11
sI1973
I9
sI1974
I6
sI1976
I7
sI1977
I10
sI1978
I5
sI1979
I6
sI1980
I7
sI1981
I6
sI1982
I10
sI1983
I5
sI1984
I13
sI1985
I11
sI1986
I10
sI1987
I11
sI1988
I7
sI1989
I15
sI1990
I9
sI1991
I15
sI1992
I24
sI1993
I23
sI1994
I45
sI1995
I22
sI1996
I27
sI1997
I31
sI1998
I26
sI1999
I48
sI2000
I36
sI2001
I41
sI2002
I42
sI2003
I54
sI2004
I42
sI2005
I51
sI2006
I56
sI2007
I54
sI2008
I67
sI2009
I77
sI2010
I95
sI2011
I98
sI2012
I129
sI2013
I104
sI2014
I139
sI2015
I132
sI1896
I1
sI1906
I1
sI1909
I1
sI1911
I1
sI1876
I2
ssb(dp189
s(ipubmed_timeline
Term
p190
(dp191
g10
VDISEASE
p192
sg12
(dp193
I1817
I1
sI1827
I1
sI1863
I1
sI1864
I2
sI1874
I9
sI1876
I1
sI1877
I1
sI1892
I1
sI1895
I1
sI1902
I1
sI1908
I2
sI1910
I2
sI1912
I19
sI1913
I9
sI1914
I2
sI1916
I2
sI1918
I1
sI1920
I1
sI1924
I2
sI1926
I3
sI1928
I2
sI1929
I2
sI1932
I1
sI1933
I1
sI1934
I3
sI1935
I1
sI1936
I1
sI1938
I1
sI1939
I2
sI1941
I1
sI1942
I1
sI1945
I20
sI1946
I48
sI1947
I25
sI1948
I25
sI1949
I28
sI1950
I22
sI1951
I73
sI1952
I110
sI1953
I140
sI1954
I106
sI1955
I102
sI1956
I97
sI1957
I78
sI1958
I67
sI1959
I37
sI1960
I68
sI1961
I66
sI1962
I32
sI1963
I46
sI1964
I66
sI1965
I67
sI1966
I168
sI1967
I125
sI1968
I127
sI1969
I238
sI1970
I220
sI1971
I203
sI1972
I206
sI1973
I224
sI1974
I211
sI1975
I200
sI1976
I149
sI1977
I131
sI1978
I122
sI1979
I121
sI1980
I187
sI1981
I134
sI1982
I173
sI1983
I135
sI1984
I149
sI1985
I170
sI1986
I125
sI1987
I162
sI1988
I205
sI1989
I252
sI1990
I400
sI1991
I455
sI1992
I417
sI1993
I454
sI1994
I474
sI1995
I406
sI1996
I390
sI1997
I344
sI1998
I412
sI1999
I454
sI2000
I482
sI2001
I623
sI2002
I603
sI2003
I644
sI2004
I499
sI2005
I670
sI2006
I640
sI2007
I664
sI2008
I714
sI2009
I779
sI2010
I742
sI2011
I765
sI2012
I962
sI2013
I1012
sI2014
I969
sI2015
I779
ssb(dp194
s(ipubmed_timeline
Term
p195
(dp196
g10
S'Penicillins'
p197
sg12
(dp198
I1945
I23
sI1946
I124
sI1947
I125
sI1948
I108
sI1949
I121
sI1950
I165
sI1951
I168
sI1952
I127
sI1953
I111
sI1954
I85
sI1955
I65
sI1956
I51
sI1957
I51
sI1958
I28
sI1959
I33
sI1960
I19
sI1961
I28
sI1962
I26
sI1963
I53
sI1964
I88
sI1965
I49
sI1966
I30
sI1967
I45
sI1968
I36
sI1969
I45
sI1970
I42
sI1971
I53
sI1972
I37
sI1973
I57
sI1974
I31
sI1975
I22
sI1976
I42
sI1977
I18
sI1978
I19
sI1979
I23
sI1980
I15
sI1981
I22
sI1982
I20
sI1983
I17
sI1984
I25
sI1985
I21
sI1986
I8
sI1987
I20
sI1988
I18
sI1989
I11
sI1990
I20
sI1991
I16
sI1992
I13
sI1993
I13
sI1994
I13
sI1995
I17
sI1996
I20
sI1997
I20
sI1998
I22
sI1999
I24
sI2000
I19
sI2001
I19
sI2002
I27
sI2003
I21
sI2004
I17
sI2005
I12
sI2006
I26
sI2007
I14
sI2008
I16
sI2009
I13
sI2010
I17
sI2011
I20
sI2012
I19
sI2013
I20
sI2014
I15
sI2015
I13
ssb(dp199
s(ipubmed_timeline
Term
p200
(dp201
g10
Vhiv
p202
sg12
(dp203
I1987
I11
sI1988
I19
sI1989
I28
sI1990
I29
sI1991
I36
sI1992
I29
sI1993
I41
sI1994
I40
sI1995
I26
sI1996
I35
sI1997
I32
sI1998
I35
sI1999
I32
sI2000
I30
sI2001
I42
sI2002
I34
sI2003
I48
sI2004
I51
sI2005
I53
sI2006
I69
sI2007
I48
sI2008
I72
sI2009
I81
sI2010
I69
sI2011
I77
sI2012
I115
sI2013
I101
sI2014
I133
sI2015
I128
ssb(dp204
s(ipubmed_timeline
Term
p205
(dp206
g10
VBLOOD
p207
sg12
(dp208
I1934
I2
sI1936
I1
sI1939
I1
sI1942
I1
sI1945
I7
sI1946
I23
sI1947
I14
sI1948
I20
sI1949
I11
sI1950
I34
sI1951
I48
sI1952
I42
sI1953
I30
sI1954
I26
sI1955
I31
sI1956
I17
sI1957
I28
sI1958
I16
sI1959
I16
sI1960
I13
sI1961
I22
sI1962
I51
sI1963
I16
sI1964
I18
sI1965
I24
sI1966
I28
sI1967
I45
sI1968
I31
sI1969
I76
sI1970
I50
sI1971
I93
sI1972
I48
sI1973
I42
sI1974
I63
sI1975
I34
sI1976
I28
sI1977
I17
sI1978
I14
sI1979
I40
sI1980
I24
sI1981
I26
sI1982
I39
sI1983
I26
sI1984
I25
sI1985
I30
sI1986
I21
sI1987
I23
sI1988
I32
sI1989
I55
sI1990
I50
sI1991
I75
sI1992
I104
sI1993
I89
sI1994
I173
sI1995
I104
sI1996
I74
sI1997
I68
sI1998
I110
sI1999
I80
sI2000
I126
sI2001
I127
sI2002
I89
sI2003
I103
sI2004
I111
sI2005
I97
sI2006
I119
sI2007
I145
sI2008
I122
sI2009
I163
sI2010
I137
sI2011
I178
sI2012
I206
sI2013
I192
sI2014
I210
sI2015
I171
sI1915
I1
ssb(dp209
ssS'node_dict_factory'
p210
c__builtin__
dict
p211
sS'edge_attr_dict_factory'
p212
g211
sS'edge'
p213
(dp214
g8
(dp215
g70
(dp216
S'w'
p217
I1
ssg30
(dp218
g217
I1
ssg185
(dp219
g217
I1
ssg105
(dp220
g217
I1
ssg65
(dp221
g217
I1
ssg120
(dp222
g217
I1
ssg25
(dp223
g217
I1
ssg190
(dp224
g217
I1
ssg110
(dp225
g217
I1
ssg35
(dp226
g217
I1
ssg8
(dp227
g217
I1
ssg160
(dp228
g217
I1
ssg165
(dp229
g217
I1
ssg170
(dp230
g217
I1
ssg175
(dp231
g217
I1
ssg40
(dp232
g217
I1
ssg100
(dp233
g217
I1
ssg15
(dp234
g217
I1
ssg20
(dp235
g217
I1
ssg180
(dp236
g217
I1
ssg200
(dp237
g217
I1
ssg205
(dp238
g217
I1
ssg125
(dp239
g217
I1
ssg115
(dp240
g217
I1
ssg80
(dp241
g217
I1
ssg45
(dp242
g217
I1
ssg50
(dp243
g217
I1
ssg55
(dp244
g217
I1
ssg60
(dp245
g217
I1
ssg130
(dp246
g217
I1
ssg135
(dp247
g217
I1
ssg140
(dp248
g217
I1
ssg145
(dp249
g217
I1
ssg150
(dp250
g217
I1
ssg155
(dp251
g217
I1
ssg195
(dp252
g217
I1
ssg85
(dp253
g217
I1
ssg75
(dp254
g217
I1
ssg90
(dp255
g217
I1
ssg95
(dp256
g217
I1
sssg15
(dp257
g45
(dp258
g217
I1
ssg30
(dp259
g217
I1
ssg35
(dp260
g217
I1
ssg65
(dp261
g217
I1
ssg110
(dp262
g217
I1
ssg115
(dp263
g217
I1
ssg120
(dp264
g217
I1
ssg8
g234
sg170
(dp265
g217
I1
ssg175
(dp266
g217
I1
ssg160
(dp267
g217
I1
ssg100
(dp268
g217
I1
ssg165
(dp269
g217
I1
ssg15
(dp270
g217
I1
ssg20
(dp271
g217
I1
ssg180
(dp272
g217
I1
ssg200
(dp273
g217
I1
ssg205
(dp274
g217
I1
ssg60
(dp275
g217
I1
ssg70
(dp276
g217
I1
ssg125
(dp277
g217
I1
ssg105
(dp278
g217
I1
ssg185
(dp279
g217
I1
ssg190
(dp280
g217
I1
ssg80
(dp281
g217
I1
ssg195
(dp282
g217
I1
ssg25
(dp283
g217
I1
ssg40
(dp284
g217
I1
ssg50
(dp285
g217
I1
ssg55
(dp286
g217
I1
ssg130
(dp287
g217
I1
ssg135
(dp288
g217
I1
ssg140
(dp289
g217
I1
ssg145
(dp290
g217
I1
ssg150
(dp291
g217
I1
ssg155
(dp292
g217
I1
ssg85
(dp293
g217
I1
ssg75
(dp294
g217
I1
ssg90
(dp295
g217
I1
ssg95
(dp296
g217
I1
sssg20
(dp297
g15
g271
sg20
(dp298
g217
I1
ssg190
(dp299
g217
I1
ssg180
(dp300
g217
I1
ssg200
(dp301
g217
I1
ssg50
(dp302
g217
I1
ssg55
(dp303
g217
I1
ssg125
(dp304
g217
I1
ssg65
(dp305
g217
I1
ssg70
(dp306
g217
I1
ssg135
(dp307
g217
I1
ssg140
(dp308
g217
I1
ssg145
(dp309
g217
I1
ssg150
(dp310
g217
I1
ssg80
(dp311
g217
I1
ssg110
(dp312
g217
I1
ssg115
(dp313
g217
I1
ssg120
(dp314
g217
I1
ssg100
(dp315
g217
I1
ssg40
(dp316
g217
I1
ssg185
(dp317
g217
I1
ssg105
(dp318
g217
I1
ssg25
(dp319
g217
I1
ssg30
(dp320
g217
I1
ssg35
(dp321
g217
I1
ssg45
(dp322
g217
I1
ssg60
(dp323
g217
I1
ssg160
(dp324
g217
I1
ssg165
(dp325
g217
I1
ssg170
(dp326
g217
I1
ssg195
(dp327
g217
I1
ssg205
(dp328
g217
I1
ssg8
g235
sg130
(dp329
g217
I1
ssg85
(dp330
g217
I1
ssg75
(dp331
g217
I1
ssg175
(dp332
g217
I1
ssg90
(dp333
g217
I1
ssg95
(dp334
g217
I1
ssg155
(dp335
g217
I1
sssg25
(dp336
g85
(dp337
g217
I1
ssg30
(dp338
g217
I1
ssg40
(dp339
g217
I1
ssg45
(dp340
g217
I1
ssg105
(dp341
g217
I1
ssg190
(dp342
g217
I1
ssg100
(dp343
g217
I1
ssg110
(dp344
g217
I1
ssg115
(dp345
g217
I1
ssg120
(dp346
g217
I1
ssg8
g223
sg160
(dp347
g217
I1
ssg165
(dp348
g217
I1
ssg170
(dp349
g217
I1
ssg175
(dp350
g217
I1
ssg15
g283
sg20
g319
sg200
(dp351
g217
I1
ssg205
(dp352
g217
I1
ssg125
(dp353
g217
I1
ssg185
(dp354
g217
I1
ssg80
(dp355
g217
I1
ssg35
(dp356
g217
I1
ssg50
(dp357
g217
I1
ssg55
(dp358
g217
I1
ssg60
(dp359
g217
I1
ssg65
(dp360
g217
I1
ssg180
(dp361
g217
I1
ssg195
(dp362
g217
I1
ssg130
(dp363
g217
I1
ssg135
(dp364
g217
I1
ssg140
(dp365
g217
I1
ssg145
(dp366
g217
I1
ssg150
(dp367
g217
I1
ssg155
(dp368
g217
I1
ssg70
(dp369
g217
I1
ssg75
(dp370
g217
I1
ssg90
(dp371
g217
I1
ssg95
(dp372
g217
I1
sssg30
(dp373
g205
(dp374
g217
I1
ssg40
(dp375
g217
I1
ssg45
(dp376
g217
I1
ssg105
(dp377
g217
I1
ssg120
(dp378
g217
I1
ssg25
g338
sg190
(dp379
g217
I1
ssg100
(dp380
g217
I1
ssg110
(dp381
g217
I1
ssg115
(dp382
g217
I1
ssg8
g218
sg160
(dp383
g217
I1
ssg165
(dp384
g217
I1
ssg15
g259
sg20
g320
sg180
(dp385
g217
I1
ssg200
(dp386
g217
I1
ssg125
(dp387
g217
I1
ssg185
(dp388
g217
I1
ssg80
(dp389
g217
I1
ssg170
(dp390
g217
I1
ssg175
(dp391
g217
I1
ssg30
(dp392
g217
I1
ssg50
(dp393
g217
I1
ssg55
(dp394
g217
I1
ssg60
(dp395
g217
I1
ssg65
(dp396
g217
I1
ssg35
(dp397
g217
I1
ssg130
(dp398
g217
I1
ssg135
(dp399
g217
I1
ssg140
(dp400
g217
I1
ssg150
(dp401
g217
I1
ssg155
(dp402
g217
I1
ssg145
(dp403
g217
I1
ssg95
(dp404
g217
I1
ssg195
(dp405
g217
I1
ssg70
(dp406
g217
I1
ssg85
(dp407
g217
I1
ssg75
(dp408
g217
I1
ssg90
(dp409
g217
I1
sssg35
(dp410
g70
(dp411
g217
I1
ssg45
(dp412
g217
I1
ssg85
(dp413
g217
I1
ssg40
(dp414
g217
I1
ssg105
(dp415
g217
I1
ssg115
(dp416
g217
I1
ssg100
(dp417
g217
I1
ssg110
(dp418
g217
I1
ssg120
(dp419
g217
I1
ssg165
(dp420
g217
I1
ssg170
(dp421
g217
I1
ssg175
(dp422
g217
I1
ssg8
g226
sg160
(dp423
g217
I1
ssg15
g260
sg20
g321
sg180
(dp424
g217
I1
ssg200
(dp425
g217
I1
ssg205
(dp426
g217
I1
ssg125
(dp427
g217
I1
ssg80
(dp428
g217
I1
ssg185
(dp429
g217
I1
ssg190
(dp430
g217
I1
ssg25
g356
sg30
g397
sg50
(dp431
g217
I1
ssg55
(dp432
g217
I1
ssg60
(dp433
g217
I1
ssg65
(dp434
g217
I1
ssg130
(dp435
g217
I1
ssg135
(dp436
g217
I1
ssg140
(dp437
g217
I1
ssg145
(dp438
g217
I1
ssg150
(dp439
g217
I1
ssg155
(dp440
g217
I1
ssg195
(dp441
g217
I1
ssg75
(dp442
g217
I1
ssg90
(dp443
g217
I1
ssg95
(dp444
g217
I1
sssg40
(dp445
g70
(dp446
g217
I1
ssg45
(dp447
g217
I1
ssg40
(dp448
g217
I1
ssg115
(dp449
g217
I1
ssg120
(dp450
g217
I1
ssg25
g339
sg190
(dp451
g217
I1
ssg100
(dp452
g217
I1
ssg110
(dp453
g217
I1
ssg8
g232
sg160
(dp454
g217
I1
ssg165
(dp455
g217
I1
ssg170
(dp456
g217
I1
ssg175
(dp457
g217
I1
ssg15
g284
sg20
g316
sg180
(dp458
g217
I1
ssg200
(dp459
g217
I1
ssg205
(dp460
g217
I1
ssg125
(dp461
g217
I1
ssg65
(dp462
g217
I1
ssg105
(dp463
g217
I1
ssg185
(dp464
g217
I1
ssg80
(dp465
g217
I1
ssg30
g375
sg35
g414
sg50
(dp466
g217
I1
ssg55
(dp467
g217
I1
ssg60
(dp468
g217
I1
ssg195
(dp469
g217
I1
ssg130
(dp470
g217
I1
ssg140
(dp471
g217
I1
ssg145
(dp472
g217
I1
ssg150
(dp473
g217
I1
ssg155
(dp474
g217
I1
ssg135
(dp475
g217
I1
ssg85
(dp476
g217
I1
ssg75
(dp477
g217
I1
ssg90
(dp478
g217
I1
ssg95
(dp479
g217
I1
sssg45
(dp480
g70
(dp481
g217
I1
ssg45
(dp482
g217
I1
ssg120
(dp483
g217
I1
ssg25
g340
sg190
(dp484
g217
I1
ssg100
(dp485
g217
I1
ssg110
(dp486
g217
I1
ssg115
(dp487
g217
I1
ssg35
g412
sg8
g242
sg160
(dp488
g217
I1
ssg165
(dp489
g217
I1
ssg15
g258
sg20
g322
sg180
(dp490
g217
I1
ssg200
(dp491
g217
I1
ssg205
(dp492
g217
I1
ssg125
(dp493
g217
I1
ssg105
(dp494
g217
I1
ssg185
(dp495
g217
I1
ssg80
(dp496
g217
I1
ssg170
(dp497
g217
I1
ssg175
(dp498
g217
I1
ssg30
g376
sg40
g447
sg50
(dp499
g217
I1
ssg55
(dp500
g217
I1
ssg60
(dp501
g217
I1
ssg65
(dp502
g217
I1
ssg195
(dp503
g217
I1
ssg130
(dp504
g217
I1
ssg135
(dp505
g217
I1
ssg140
(dp506
g217
I1
ssg145
(dp507
g217
I1
ssg150
(dp508
g217
I1
ssg95
(dp509
g217
I1
ssg85
(dp510
g217
I1
ssg75
(dp511
g217
I1
ssg90
(dp512
g217
I1
ssg155
(dp513
g217
I1
sssg50
(dp514
g15
g285
sg20
g302
sg70
(dp515
g217
I1
ssg185
(dp516
g217
I1
ssg190
(dp517
g217
I1
ssg180
(dp518
g217
I1
ssg200
(dp519
g217
I1
ssg125
(dp520
g217
I1
ssg130
(dp521
g217
I1
ssg60
(dp522
g217
I1
ssg205
(dp523
g217
I1
ssg150
(dp524
g217
I1
ssg35
g431
sg80
(dp525
g217
I1
ssg140
(dp526
g217
I1
ssg105
(dp527
g217
I1
ssg55
(dp528
g217
I1
ssg115
(dp529
g217
I1
ssg120
(dp530
g217
I1
ssg85
(dp531
g217
I1
ssg135
(dp532
g217
I1
ssg25
g357
sg30
g393
sg100
(dp533
g217
I1
ssg40
g466
sg45
g499
sg50
(dp534
g217
I1
ssg110
(dp535
g217
I1
ssg65
(dp536
g217
I1
ssg8
g243
sg160
(dp537
g217
I1
ssg165
(dp538
g217
I1
ssg170
(dp539
g217
I1
ssg195
(dp540
g217
I1
ssg145
(dp541
g217
I1
ssg75
(dp542
g217
I1
ssg175
(dp543
g217
I1
ssg90
(dp544
g217
I1
ssg95
(dp545
g217
I1
ssg155
(dp546
g217
I1
sssg55
(dp547
g15
g286
sg20
g303
sg180
(dp548
g217
I1
ssg55
(dp549
g217
I1
ssg130
(dp550
g217
I1
ssg60
(dp551
g217
I1
ssg125
(dp552
g217
I1
ssg205
(dp553
g217
I1
ssg70
(dp554
g217
I1
ssg145
(dp555
g217
I1
ssg150
(dp556
g217
I1
ssg155
(dp557
g217
I1
ssg80
(dp558
g217
I1
ssg120
(dp559
g217
I1
ssg100
(dp560
g217
I1
ssg195
(dp561
g217
I1
ssg50
g528
sg65
(dp562
g217
I1
ssg190
(dp563
g217
I1
ssg135
(dp564
g217
I1
ssg25
g358
sg30
g394
sg35
g432
sg40
g467
sg45
g500
sg105
(dp565
g217
I1
ssg110
(dp566
g217
I1
ssg115
(dp567
g217
I1
ssg200
(dp568
g217
I1
ssg8
g244
sg160
(dp569
g217
I1
ssg165
(dp570
g217
I1
ssg170
(dp571
g217
I1
ssg175
(dp572
g217
I1
ssg140
(dp573
g217
I1
ssg185
(dp574
g217
I1
ssg85
(dp575
g217
I1
ssg75
(dp576
g217
I1
ssg90
(dp577
g217
I1
ssg95
(dp578
g217
I1
sssg60
(dp579
g15
g275
sg20
g323
sg125
(dp580
g217
I1
ssg185
(dp581
g217
I1
ssg190
(dp582
g217
I1
ssg180
(dp583
g217
I1
ssg200
(dp584
g217
I1
ssg205
(dp585
g217
I1
ssg130
(dp586
g217
I1
ssg65
(dp587
g217
I1
ssg135
(dp588
g217
I1
ssg145
(dp589
g217
I1
ssg150
(dp590
g217
I1
ssg155
(dp591
g217
I1
ssg80
(dp592
g217
I1
ssg60
(dp593
g217
I1
ssg35
g433
sg195
(dp594
g217
I1
ssg45
g501
sg105
(dp595
g217
I1
ssg55
g551
sg120
(dp596
g217
I1
ssg25
g359
sg30
g395
sg100
(dp597
g217
I1
ssg40
g468
sg50
g522
sg110
(dp598
g217
I1
ssg115
(dp599
g217
I1
ssg8
g245
sg160
(dp600
g217
I1
ssg165
(dp601
g217
I1
ssg170
(dp602
g217
I1
ssg175
(dp603
g217
I1
ssg140
(dp604
g217
I1
ssg70
(dp605
g217
I1
ssg85
(dp606
g217
I1
ssg75
(dp607
g217
I1
ssg90
(dp608
g217
I1
ssg95
(dp609
g217
I1
sssg65
(dp610
g70
(dp611
g217
I1
ssg45
g502
sg30
g396
sg120
(dp612
g217
I1
ssg105
(dp613
g217
I1
ssg110
(dp614
g217
I1
ssg115
(dp615
g217
I1
ssg8
g221
sg160
(dp616
g217
I1
ssg165
(dp617
g217
I1
ssg170
(dp618
g217
I1
ssg175
(dp619
g217
I1
ssg100
(dp620
g217
I1
ssg15
g261
sg20
g305
sg180
(dp621
g217
I1
ssg200
(dp622
g217
I1
ssg205
(dp623
g217
I1
ssg125
(dp624
g217
I1
ssg185
(dp625
g217
I1
ssg190
(dp626
g217
I1
ssg80
(dp627
g217
I1
ssg25
g360
sg35
g434
sg40
g462
sg50
g536
sg55
g562
sg60
g587
sg65
(dp628
g217
I1
ssg195
(dp629
g217
I1
ssg130
(dp630
g217
I1
ssg135
(dp631
g217
I1
ssg140
(dp632
g217
I1
ssg145
(dp633
g217
I1
ssg150
(dp634
g217
I1
ssg155
(dp635
g217
I1
ssg75
(dp636
g217
I1
ssg85
(dp637
g217
I1
ssg90
(dp638
g217
I1
ssg95
(dp639
g217
I1
sssg70
(dp640
g45
g481
sg25
g369
sg55
g554
sg120
(dp641
g217
I1
ssg100
(dp642
g217
I1
ssg105
(dp643
g217
I1
ssg115
(dp644
g217
I1
ssg160
(dp645
g217
I1
ssg165
(dp646
g217
I1
ssg170
(dp647
g217
I1
ssg175
(dp648
g217
I1
ssg40
g446
sg8
g216
sg15
g276
sg20
g306
sg180
(dp649
g217
I1
ssg200
(dp650
g217
I1
ssg50
g515
sg205
(dp651
g217
I1
ssg125
(dp652
g217
I1
ssg110
(dp653
g217
I1
ssg185
(dp654
g217
I1
ssg190
(dp655
g217
I1
ssg80
(dp656
g217
I1
ssg30
g406
sg35
g411
sg60
g605
sg65
g611
sg130
(dp657
g217
I1
ssg140
(dp658
g217
I1
ssg145
(dp659
g217
I1
ssg135
(dp660
g217
I1
ssg150
(dp661
g217
I1
ssg155
(dp662
g217
I1
ssg85
(dp663
g217
I1
ssg195
(dp664
g217
I1
ssg75
(dp665
g217
I1
ssg90
(dp666
g217
I1
ssg95
(dp667
g217
I1
sssg75
(dp668
g15
g294
sg130
(dp669
g217
I1
ssg20
g331
sg200
(dp670
g217
I1
ssg125
(dp671
g217
I1
ssg85
(dp672
g217
I1
ssg60
g607
sg70
g665
sg65
g636
sg135
(dp673
g217
I1
ssg145
(dp674
g217
I1
ssg150
(dp675
g217
I1
ssg80
(dp676
g217
I1
ssg115
(dp677
g217
I1
ssg120
(dp678
g217
I1
ssg25
g370
sg30
g408
sg195
(dp679
g217
I1
ssg185
(dp680
g217
I1
ssg50
g542
sg190
(dp681
g217
I1
ssg100
(dp682
g217
I1
ssg35
g442
sg40
g477
sg45
g511
sg105
(dp683
g217
I1
ssg55
g576
sg110
(dp684
g217
I1
ssg180
(dp685
g217
I1
ssg8
g254
sg160
(dp686
g217
I1
ssg170
(dp687
g217
I1
ssg95
(dp688
g217
I1
ssg205
(dp689
g217
I1
ssg140
(dp690
g217
I1
ssg165
(dp691
g217
I1
ssg175
(dp692
g217
I1
ssg90
(dp693
g217
I1
ssg155
(dp694
g217
I1
sssg80
(dp695
g15
g281
sg130
(dp696
g217
I1
ssg70
g656
sg20
g311
sg205
(dp697
g217
I1
ssg55
g558
sg60
g592
sg125
(dp698
g217
I1
ssg100
(dp699
g217
I1
ssg65
g627
sg50
g525
sg140
(dp700
g217
I1
ssg145
(dp701
g217
I1
ssg150
(dp702
g217
I1
ssg80
(dp703
g217
I1
ssg115
(dp704
g217
I1
ssg190
(dp705
g217
I1
ssg120
(dp706
g217
I1
ssg25
g355
sg30
g389
sg185
(dp707
g217
I1
ssg135
(dp708
g217
I1
ssg35
g428
sg45
g496
sg105
(dp709
g217
I1
ssg110
(dp710
g217
I1
ssg180
(dp711
g217
I1
ssg200
(dp712
g217
I1
ssg90
(dp713
g217
I1
ssg95
(dp714
g217
I1
ssg8
g241
sg160
(dp715
g217
I1
ssg165
(dp716
g217
I1
ssg175
(dp717
g217
I1
ssg195
(dp718
g217
I1
ssg40
g465
sg85
(dp719
g217
I1
ssg75
g676
sg170
(dp720
g217
I1
ssg155
(dp721
g217
I1
sssg85
(dp722
g15
g293
sg20
g330
sg70
g663
sg185
(dp723
g217
I1
ssg190
(dp724
g217
I1
ssg180
(dp725
g217
I1
ssg200
(dp726
g217
I1
ssg50
g531
sg205
(dp727
g217
I1
ssg125
(dp728
g217
I1
ssg130
(dp729
g217
I1
ssg65
g637
sg135
(dp730
g217
I1
ssg145
(dp731
g217
I1
ssg80
g719
sg25
g337
sg100
(dp732
g217
I1
ssg45
g510
sg60
g606
sg75
g672
sg30
g407
sg35
g413
sg40
g476
sg105
(dp733
g217
I1
ssg55
g575
sg110
(dp734
g217
I1
ssg115
(dp735
g217
I1
ssg120
(dp736
g217
I1
ssg8
g253
sg160
(dp737
g217
I1
ssg165
(dp738
g217
I1
ssg170
(dp739
g217
I1
ssg195
(dp740
g217
I1
ssg95
(dp741
g217
I1
ssg140
(dp742
g217
I1
ssg150
(dp743
g217
I1
ssg85
(dp744
g217
I1
ssg175
(dp745
g217
I1
ssg90
(dp746
g217
I1
ssg155
(dp747
g217
I1
sssg90
(dp748
g20
g333
sg185
(dp749
g217
I1
ssg180
(dp750
g217
I1
ssg50
g544
sg125
(dp751
g217
I1
ssg130
(dp752
g217
I1
ssg205
(dp753
g217
I1
ssg135
(dp754
g217
I1
ssg145
(dp755
g217
I1
ssg80
g713
sg115
(dp756
g217
I1
ssg100
(dp757
g217
I1
ssg140
(dp758
g217
I1
ssg110
(dp759
g217
I1
ssg15
g295
sg190
(dp760
g217
I1
ssg25
g371
sg30
g409
sg40
g478
sg45
g512
sg105
(dp761
g217
I1
ssg55
g577
sg60
g608
sg65
g638
sg120
(dp762
g217
I1
ssg200
(dp763
g217
I1
ssg35
g443
sg8
g255
sg160
(dp764
g217
I1
ssg170
(dp765
g217
I1
ssg175
(dp766
g217
I1
ssg70
g666
sg150
(dp767
g217
I1
ssg85
g746
sg165
(dp768
g217
I1
ssg75
g693
sg195
(dp769
g217
I1
ssg95
(dp770
g217
I1
ssg155
(dp771
g217
I1
sssg95
(dp772
g70
g667
sg30
g404
sg105
(dp773
g217
I1
ssg25
g372
sg190
(dp774
g217
I1
ssg100
(dp775
g217
I1
ssg115
(dp776
g217
I1
ssg120
(dp777
g217
I1
ssg35
g444
sg8
g256
sg165
(dp778
g217
I1
ssg175
(dp779
g217
I1
ssg40
g479
sg160
(dp780
g217
I1
ssg170
(dp781
g217
I1
ssg15
g296
sg20
g334
sg180
(dp782
g217
I1
ssg200
(dp783
g217
I1
ssg205
(dp784
g217
I1
ssg125
(dp785
g217
I1
ssg110
(dp786
g217
I1
ssg185
(dp787
g217
I1
ssg80
g714
sg45
g509
sg50
g545
sg55
g578
sg60
g609
sg65
g639
sg130
(dp788
g217
I1
ssg135
(dp789
g217
I1
ssg140
(dp790
g217
I1
ssg145
(dp791
g217
I1
ssg150
(dp792
g217
I1
ssg195
(dp793
g217
I1
ssg85
g741
sg75
g688
sg90
g770
sg95
(dp794
g217
I1
ssg155
(dp795
g217
I1
sssg100
(dp796
g15
g268
sg20
g315
sg125
(dp797
g217
I1
ssg185
(dp798
g217
I1
ssg190
(dp799
g217
I1
ssg180
(dp800
g217
I1
ssg200
(dp801
g217
I1
ssg50
g533
sg55
g560
sg130
(dp802
g217
I1
ssg70
g642
sg80
g699
sg75
g682
sg110
(dp803
g217
I1
ssg30
g380
sg100
(dp804
g217
I1
ssg35
g417
sg45
g485
sg115
(dp805
g217
I1
ssg120
(dp806
g217
I1
ssg135
(dp807
g217
I1
ssg25
g343
sg40
g452
sg105
(dp808
g217
I1
ssg60
g597
sg65
g620
sg8
g233
sg160
(dp809
g217
I1
ssg170
(dp810
g217
I1
ssg175
(dp811
g217
I1
ssg195
(dp812
g217
I1
ssg205
(dp813
g217
I1
ssg140
(dp814
g217
I1
ssg145
(dp815
g217
I1
ssg150
(dp816
g217
I1
ssg85
g732
sg165
(dp817
g217
I1
ssg90
g757
sg95
g775
sg155
(dp818
g217
I1
sssg105
(dp819
g70
g643
sg75
g683
sg45
g494
sg100
g808
sg110
(dp820
g217
I1
ssg115
(dp821
g217
I1
ssg120
(dp822
g217
I1
ssg8
g220
sg160
(dp823
g217
I1
ssg170
(dp824
g217
I1
ssg175
(dp825
g217
I1
ssg165
(dp826
g217
I1
ssg15
g278
sg20
g318
sg180
(dp827
g217
I1
ssg200
(dp828
g217
I1
ssg205
(dp829
g217
I1
ssg125
(dp830
g217
I1
ssg105
(dp831
g217
I1
ssg185
(dp832
g217
I1
ssg190
(dp833
g217
I1
ssg80
g709
sg195
(dp834
g217
I1
ssg25
g341
sg30
g377
sg35
g415
sg40
g463
sg50
g527
sg55
g565
sg60
g595
sg65
g613
sg130
(dp835
g217
I1
ssg135
(dp836
g217
I1
ssg140
(dp837
g217
I1
ssg145
(dp838
g217
I1
ssg150
(dp839
g217
I1
ssg155
(dp840
g217
I1
ssg85
g733
sg90
g761
sg95
g773
ssg110
(dp841
g40
g453
sg105
g820
sg100
g803
sg110
(dp842
g217
I1
ssg115
(dp843
g217
I1
ssg120
(dp844
g217
I1
ssg8
g225
sg165
(dp845
g217
I1
ssg170
(dp846
g217
I1
ssg175
(dp847
g217
I1
ssg95
g786
sg160
(dp848
g217
I1
ssg15
g262
sg20
g312
sg180
(dp849
g217
I1
ssg200
(dp850
g217
I1
ssg50
g535
sg205
(dp851
g217
I1
ssg70
g653
sg125
(dp852
g217
I1
ssg185
(dp853
g217
I1
ssg190
(dp854
g217
I1
ssg80
g710
sg25
g344
sg30
g381
sg35
g418
sg45
g486
sg55
g566
sg60
g598
sg65
g614
sg130
(dp855
g217
I1
ssg135
(dp856
g217
I1
ssg140
(dp857
g217
I1
ssg150
(dp858
g217
I1
ssg195
(dp859
g217
I1
ssg145
(dp860
g217
I1
ssg85
g734
sg75
g684
sg90
g759
sg155
(dp861
g217
I1
sssg115
(dp862
g70
g644
sg40
g449
sg65
g615
sg100
g805
sg120
(dp863
g217
I1
ssg35
g416
sg8
g240
sg160
(dp864
g217
I1
ssg175
(dp865
g217
I1
ssg165
(dp866
g217
I1
ssg15
g263
sg20
g313
sg180
(dp867
g217
I1
ssg200
(dp868
g217
I1
ssg205
(dp869
g217
I1
ssg125
(dp870
g217
I1
ssg105
g821
sg110
g843
sg115
(dp871
g217
I1
ssg185
(dp872
g217
I1
ssg190
(dp873
g217
I1
ssg80
g704
sg170
(dp874
g217
I1
ssg155
(dp875
g217
I1
ssg25
g345
sg30
g382
sg45
g487
sg50
g529
sg55
g567
sg60
g599
sg130
(dp876
g217
I1
ssg135
(dp877
g217
I1
ssg140
(dp878
g217
I1
ssg145
(dp879
g217
I1
ssg150
(dp880
g217
I1
ssg95
g776
sg195
(dp881
g217
I1
ssg85
g735
sg75
g677
sg90
g756
ssg120
(dp882
g15
g264
sg20
g314
sg185
(dp883
g217
I1
ssg190
(dp884
g217
I1
ssg180
(dp885
g217
I1
ssg200
(dp886
g217
I1
ssg205
(dp887
g217
I1
ssg55
g559
sg130
(dp888
g217
I1
ssg125
(dp889
g217
I1
ssg140
(dp890
g217
I1
ssg145
(dp891
g217
I1
ssg150
(dp892
g217
I1
ssg155
(dp893
g217
I1
ssg80
g706
sg100
g806
sg45
g483
sg105
g822
sg60
g596
sg65
g612
sg120
(dp894
g217
I1
ssg85
g736
sg135
(dp895
g217
I1
ssg25
g346
sg30
g378
sg35
g419
sg40
g450
sg50
g530
sg110
g844
sg115
g863
sg8
g222
sg165
(dp896
g217
I1
ssg170
(dp897
g217
I1
ssg175
(dp898
g217
I1
ssg195
(dp899
g217
I1
ssg160
(dp900
g217
I1
ssg70
g641
sg75
g678
sg90
g762
sg95
g777
ssg125
(dp901
g70
g652
sg45
g493
sg105
g830
sg55
g552
sg25
g353
sg190
(dp902
g217
I1
ssg100
g797
sg110
g852
sg115
g870
sg170
(dp903
g217
I1
ssg40
g461
sg160
(dp904
g217
I1
ssg165
(dp905
g217
I1
ssg175
(dp906
g217
I1
ssg15
g277
sg20
g304
sg180
(dp907
g217
I1
ssg200
(dp908
g217
I1
ssg205
(dp909
g217
I1
ssg120
g889
sg185
(dp910
g217
I1
ssg80
g698
sg8
g239
sg30
g387
sg50
g520
sg60
g580
sg65
g624
sg130
(dp911
g217
I1
ssg35
g427
sg135
(dp912
g217
I1
ssg140
(dp913
g217
I1
ssg145
(dp914
g217
I1
ssg150
(dp915
g217
I1
ssg155
(dp916
g217
I1
ssg90
g751
sg95
g785
sg195
(dp917
g217
I1
ssg85
g728
sg75
g671
ssg130
(dp918
g70
g657
sg25
g363
sg100
g802
sg110
g855
sg115
g876
sg120
g888
sg35
g435
sg160
(dp919
g217
I1
ssg165
(dp920
g217
I1
ssg15
g287
sg20
g329
sg180
(dp921
g217
I1
ssg200
(dp922
g217
I1
ssg205
(dp923
g217
I1
ssg125
g911
sg105
g835
sg185
(dp924
g217
I1
ssg190
(dp925
g217
I1
ssg80
g696
sg8
g246
sg170
(dp926
g217
I1
ssg175
(dp927
g217
I1
ssg195
(dp928
g217
I1
ssg30
g398
sg40
g470
sg45
g504
sg50
g521
sg55
g550
sg60
g586
sg65
g630
sg130
(dp929
g217
I1
ssg135
(dp930
g217
I1
ssg140
(dp931
g217
I1
ssg145
(dp932
g217
I1
ssg150
(dp933
g217
I1
ssg155
(dp934
g217
I1
ssg85
g729
sg75
g669
sg90
g752
sg95
g788
ssg135
(dp935
g70
g660
sg45
g505
sg25
g364
sg50
g532
sg60
g588
sg65
g631
sg120
g895
sg115
g877
sg35
g436
sg8
g247
sg165
(dp936
g217
I1
ssg170
(dp937
g217
I1
ssg160
(dp938
g217
I1
ssg100
g807
sg175
(dp939
g217
I1
ssg15
g288
sg20
g307
sg180
(dp940
g217
I1
ssg200
(dp941
g217
I1
ssg205
(dp942
g217
I1
ssg125
g912
sg105
g836
sg110
g856
sg185
(dp943
g217
I1
ssg190
(dp944
g217
I1
ssg80
g708
sg30
g399
sg40
g475
sg55
g564
sg130
g930
sg135
(dp945
g217
I1
ssg140
(dp946
g217
I1
ssg145
(dp947
g217
I1
ssg150
(dp948
g217
I1
ssg155
(dp949
g217
I1
ssg195
(dp950
g217
I1
ssg85
g730
sg75
g673
sg90
g754
sg95
g789
ssg140
(dp951
g15
g289
sg20
g308
sg70
g658
sg185
(dp952
g217
I1
ssg190
(dp953
g217
I1
ssg200
(dp954
g217
I1
ssg50
g526
sg205
(dp955
g217
I1
ssg130
g931
sg125
g913
sg135
g946
sg145
(dp956
g217
I1
ssg150
(dp957
g217
I1
ssg80
g700
sg110
g857
sg115
g878
sg45
g506
sg55
g573
sg75
g690
sg25
g365
sg30
g400
sg35
g437
sg40
g471
sg105
g837
sg60
g604
sg65
g632
sg120
g890
sg180
(dp958
g217
I1
ssg8
g248
sg160
(dp959
g217
I1
ssg165
(dp960
g217
I1
ssg170
(dp961
g217
I1
ssg195
(dp962
g217
I1
ssg140
(dp963
g217
I1
ssg100
g814
sg85
g742
sg175
(dp964
g217
I1
ssg90
g758
sg95
g790
sg155
(dp965
g217
I1
sssg145
(dp966
g8
g249
sg15
g290
sg20
g309
sg25
g366
sg30
g403
sg35
g438
sg40
g472
sg50
g541
sg60
g589
sg70
g659
sg110
g860
sg120
g891
sg55
g555
sg65
g633
sg80
g701
sg85
g731
sg180
(dp967
g217
I1
ssg90
g755
sg95
g791
sg195
(dp968
g217
I1
ssg105
g838
sg115
g879
sg125
g914
sg130
g932
sg135
g947
sg140
g956
sg145
(dp969
g217
I1
ssg150
(dp970
g217
I1
ssg155
(dp971
g217
I1
ssg75
g674
sg45
g507
sg160
(dp972
g217
I1
ssg165
(dp973
g217
I1
ssg170
(dp974
g217
I1
ssg175
(dp975
g217
I1
ssg205
(dp976
g217
I1
ssg185
(dp977
g217
I1
ssg190
(dp978
g217
I1
ssg200
(dp979
g217
I1
ssg100
g815
ssg150
(dp980
g70
g661
sg30
g401
sg45
g508
sg105
g839
sg115
g880
sg25
g367
sg110
g858
sg35
g439
sg8
g250
sg165
(dp981
g217
I1
ssg170
(dp982
g217
I1
ssg175
(dp983
g217
I1
ssg40
g473
sg160
(dp984
g217
I1
ssg100
g816
sg15
g291
sg20
g310
sg200
(dp985
g217
I1
ssg205
(dp986
g217
I1
ssg55
g556
sg120
g892
sg185
(dp987
g217
I1
ssg190
(dp988
g217
I1
ssg80
g702
sg50
g524
sg60
g590
sg65
g634
sg180
(dp989
g217
I1
ssg195
(dp990
g217
I1
ssg125
g915
sg130
g933
sg135
g948
sg140
g957
sg145
g970
sg150
(dp991
g217
I1
ssg155
(dp992
g217
I1
ssg85
g743
sg75
g675
sg90
g767
sg95
g792
ssg155
(dp993
g15
g292
sg20
g335
sg70
g662
sg185
(dp994
g217
I1
ssg190
(dp995
g217
I1
ssg180
(dp996
g217
I1
ssg200
(dp997
g217
I1
ssg205
(dp998
g217
I1
ssg55
g557
sg125
g916
sg65
g635
sg135
g949
sg140
g965
sg145
g971
sg150
g992
sg80
g721
sg155
(dp999
g217
I1
ssg50
g546
sg60
g591
sg25
g368
sg30
g402
sg35
g440
sg40
g474
sg45
g513
sg105
g840
sg110
g861
sg115
g875
sg120
g893
sg95
g795
sg8
g251
sg160
(dp1000
g217
I1
ssg165
(dp1001
g217
I1
ssg170
(dp1002
g217
I1
ssg195
(dp1003
g217
I1
ssg100
g818
sg130
g934
sg85
g747
sg75
g694
sg175
(dp1004
g217
I1
ssg90
g771
ssg160
(dp1005
g70
g645
sg25
g347
sg40
g454
sg105
g823
sg110
g848
sg100
g809
sg115
g864
sg120
g900
sg35
g423
sg8
g228
sg160
(dp1006
g217
I1
ssg165
(dp1007
g217
I1
ssg175
(dp1008
g217
I1
ssg15
g267
sg20
g324
sg180
(dp1009
g217
I1
ssg200
(dp1010
g217
I1
ssg205
(dp1011
g217
I1
ssg125
g904
sg185
(dp1012
g217
I1
ssg190
(dp1013
g217
I1
ssg80
g715
sg170
(dp1014
g217
I1
ssg30
g383
sg50
g537
sg55
g569
sg60
g600
sg65
g616
sg130
g919
sg135
g938
sg140
g959
sg150
g984
sg155
g1000
sg45
g488
sg90
g764
sg195
(dp1015
g217
I1
ssg145
g972
sg85
g737
sg75
g686
sg95
g780
ssg165
(dp1016
g20
g325
sg15
g269
sg45
g489
sg185
(dp1017
g217
I1
ssg125
g905
sg130
g920
sg100
g817
sg65
g617
sg70
g646
sg135
g936
sg145
g973
sg150
g981
sg105
g826
sg35
g420
sg40
g455
sg50
g538
sg60
g601
sg115
g866
sg80
g716
sg190
(dp1018
g217
I1
ssg25
g348
sg30
g384
sg55
g570
sg110
g845
sg120
g896
sg180
(dp1019
g217
I1
ssg200
(dp1020
g217
I1
ssg8
g229
sg170
(dp1021
g217
I1
ssg195
(dp1022
g217
I1
ssg205
(dp1023
g217
I1
ssg140
g960
sg160
g1007
sg85
g738
sg75
g691
sg175
(dp1024
g217
I1
ssg90
g768
sg95
g778
sg155
g1001
ssg170
(dp1025
g15
g265
sg130
g926
sg20
g326
sg180
(dp1026
g217
I1
ssg200
(dp1027
g217
I1
ssg50
g539
sg205
(dp1028
g217
I1
ssg125
g903
sg60
g602
sg70
g647
sg145
g974
sg150
g982
sg115
g874
sg190
(dp1029
g217
I1
ssg30
g390
sg185
(dp1030
g217
I1
ssg140
g961
sg105
g824
sg110
g846
sg80
g720
sg135
g937
sg25
g349
sg100
g810
sg35
g421
sg40
g456
sg45
g497
sg55
g571
sg65
g618
sg120
g897
sg90
g765
sg8
g230
sg160
g1014
sg170
(dp1031
g217
I1
ssg175
(dp1032
g217
I1
ssg195
(dp1033
g217
I1
ssg85
g739
sg165
g1021
sg75
g687
sg95
g781
sg155
g1002
ssg175
(dp1034
g45
g498
sg70
g648
sg30
g391
sg40
g457
sg105
g825
sg115
g865
sg25
g350
sg190
(dp1035
g217
I1
ssg110
g847
sg120
g898
sg35
g422
sg160
g1008
sg175
(dp1036
g217
I1
ssg8
g231
sg100
g811
sg165
g1024
sg15
g266
sg20
g332
sg200
(dp1037
g217
I1
ssg205
(dp1038
g217
I1
ssg125
g906
sg65
g619
sg185
(dp1039
g217
I1
ssg80
g717
sg170
g1032
sg50
g543
sg55
g572
sg60
g603
sg180
(dp1040
g217
I1
ssg130
g927
sg135
g939
sg140
g964
sg145
g975
sg150
g983
sg95
g779
sg195
(dp1041
g217
I1
ssg85
g745
sg75
g692
sg90
g766
sg155
g1004
ssg180
(dp1042
g15
g272
sg20
g300
sg190
(dp1043
g217
I1
ssg180
(dp1044
g217
I1
ssg200
(dp1045
g217
I1
ssg125
g907
sg60
g583
sg65
g621
sg205
(dp1046
g217
I1
ssg70
g649
sg135
g940
sg145
g967
sg150
g989
sg80
g711
sg30
g385
sg100
g800
sg195
(dp1047
g217
I1
ssg185
(dp1048
g217
I1
ssg45
g490
sg50
g518
sg120
g885
sg85
g725
sg25
g361
sg35
g424
sg40
g458
sg105
g827
sg55
g548
sg110
g849
sg115
g867
sg90
g750
sg8
g236
sg160
g1009
sg165
g1019
sg170
g1026
sg140
g958
sg130
g921
sg75
g685
sg175
g1040
sg95
g782
sg155
g996
ssg185
(dp1049
g15
g279
sg20
g317
sg45
g495
sg125
g910
sg130
g924
sg70
g654
sg65
g625
sg140
g952
sg145
g977
sg150
g987
sg30
g388
sg100
g798
sg185
(dp1050
g217
I1
ssg50
g516
sg60
g581
sg80
g707
sg120
g883
sg190
(dp1051
g217
I1
ssg135
g943
sg25
g354
sg35
g429
sg40
g464
sg105
g832
sg55
g574
sg110
g853
sg115
g872
sg180
g1048
sg200
(dp1052
g217
I1
ssg8
g219
sg160
g1012
sg165
g1017
sg170
g1030
sg195
(dp1053
g217
I1
ssg205
(dp1054
g217
I1
ssg85
g723
sg75
g680
sg175
g1039
sg90
g749
sg95
g787
sg155
g994
ssg190
(dp1055
g45
g484
sg70
g655
sg30
g379
sg40
g451
sg110
g854
sg65
g626
sg25
g342
sg190
(dp1056
g217
I1
ssg100
g799
sg115
g873
sg120
g884
sg8
g224
sg160
g1013
sg165
g1018
sg170
g1029
sg175
g1035
sg15
g280
sg20
g299
sg180
g1043
sg200
(dp1057
g217
I1
ssg205
(dp1058
g217
I1
ssg105
g833
sg185
g1051
sg80
g705
sg35
g430
sg50
g517
sg55
g563
sg60
g582
sg125
g902
sg130
g925
sg135
g944
sg140
g953
sg145
g978
sg150
g988
sg155
g995
sg195
(dp1059
g217
I1
ssg85
g724
sg75
g681
sg90
g760
sg95
g774
ssg195
(dp1060
g15
g282
sg20
g327
sg70
g664
sg45
g503
sg180
g1047
sg200
(dp1061
g217
I1
ssg125
g917
sg130
g928
sg65
g629
sg145
g968
sg150
g990
sg115
g881
sg60
g594
sg100
g812
sg35
g441
sg135
g950
sg185
g1053
sg50
g540
sg80
g718
sg85
g740
sg190
g1059
sg25
g362
sg30
g405
sg40
g469
sg105
g834
sg55
g561
sg110
g859
sg120
g899
sg95
g793
sg8
g252
sg165
g1022
sg170
g1033
sg205
(dp1062
g217
I1
ssg140
g962
sg160
g1015
sg75
g679
sg175
g1041
sg90
g769
sg155
g1003
ssg200
(dp1063
g15
g273
sg130
g922
sg20
g301
sg185
g1052
sg180
g1045
sg50
g519
sg125
g908
sg65
g622
sg70
g650
sg135
g941
sg145
g979
sg80
g712
sg30
g386
sg100
g801
sg140
g954
sg60
g584
sg155
g997
sg120
g886
sg190
g1057
sg25
g351
sg35
g425
sg40
g459
sg45
g491
sg105
g828
sg55
g568
sg110
g850
sg115
g868
sg8
g237
sg160
g1010
sg165
g1020
sg170
g1027
sg195
g1061
sg205
(dp1064
g217
I1
ssg150
g985
sg85
g726
sg75
g670
sg175
g1037
sg90
g763
sg95
g783
ssg205
(dp1065
g205
(dp1066
g217
I1
ssg70
g651
sg50
g523
sg110
g851
sg115
g869
sg120
g887
sg25
g352
sg100
g813
sg105
g829
sg35
g426
sg8
g238
sg160
g1011
sg165
g1023
sg170
g1028
sg175
g1038
sg15
g274
sg20
g328
sg180
g1046
sg200
g1064
sg125
g909
sg65
g623
sg185
g1054
sg190
g1058
sg80
g697
sg30
g374
sg40
g460
sg55
g553
sg60
g585
sg195
g1062
sg130
g923
sg135
g942
sg140
g955
sg145
g976
sg150
g986
sg155
g998
sg45
g492
sg85
g727
sg75
g689
sg90
g753
sg95
g784
sssS'graph'
p1067
(dp1068
sS'adjlist_dict_factory'
p1069
g211
sS'adj'
p1070
g214
sb.