ccopy_reg
_reconstructor
p0
(cnetworkx.classes.graph
Graph
p1
c__builtin__
object
p2
Ntp3
Rp4
(dp5
S'node'
p6
(dp7
(ipubmed_timeline
Term
p8
(dp9
S'term'
p10
S'Syphilis/epidemiology'
p11
sS'mentions_in_year'
p12
(dp13
I1948
I1
sI1950
I4
sI1951
I4
sI1952
I6
sI1953
I12
sI1954
I13
sI1955
I17
sI1956
I12
sI1957
I17
sI1958
I12
sI1959
I4
sI1960
I10
sI1961
I7
sI1962
I4
sI1964
I1
sI1965
I16
sI1966
I25
sI1967
I24
sI1968
I25
sI1969
I23
sI1970
I20
sI1971
I28
sI1972
I23
sI1973
I20
sI1974
I21
sI1975
I18
sI1976
I16
sI1977
I15
sI1978
I13
sI1979
I14
sI1980
I23
sI1981
I21
sI1982
I18
sI1983
I14
sI1984
I17
sI1985
I24
sI1986
I17
sI1987
I16
sI1988
I23
sI1989
I18
sI1990
I27
sI1991
I31
sI1992
I13
sI1993
I19
sI1994
I19
sI1995
I22
sI1996
I17
sI1997
I21
sI1998
I18
sI1999
I31
sI2000
I20
sI2001
I35
sI2002
I33
sI2003
I32
sI2004
I27
sI2005
I36
sI2006
I27
sI2007
I30
sI2008
I31
sI2009
I35
sI2010
I35
sI2011
I35
sI2012
I55
sI2013
I53
sI2014
I64
sI2015
I47
ssb(dp14
s(ipubmed_timeline
Term
p15
(dp16
g10
VCONGENITAL
p17
sg12
(dp18
I1875
I1
sI1892
I1
sI1901
I1
sI1903
I1
sI1906
I1
sI1908
I2
sI1909
I3
sI1910
I1
sI1911
I2
sI1912
I19
sI1913
I5
sI1914
I2
sI1915
I6
sI1916
I1
sI1917
I2
sI1918
I3
sI1920
I1
sI1921
I16
sI1922
I2
sI1923
I4
sI1924
I2
sI1925
I3
sI1926
I5
sI1927
I3
sI1929
I1
sI1930
I2
sI1931
I3
sI1932
I2
sI1934
I9
sI1935
I1
sI1936
I2
sI1938
I2
sI1939
I1
sI1941
I1
sI1943
I1
sI1944
I4
sI1945
I7
sI1946
I10
sI1947
I17
sI1948
I18
sI1949
I22
sI1950
I84
sI1951
I75
sI1952
I67
sI1953
I41
sI1954
I33
sI1955
I26
sI1956
I27
sI1957
I17
sI1958
I18
sI1959
I9
sI1960
I11
sI1961
I10
sI1962
I21
sI1963
I19
sI1964
I17
sI1965
I20
sI1966
I18
sI1967
I20
sI1968
I13
sI1969
I18
sI1970
I26
sI1971
I24
sI1972
I12
sI1973
I20
sI1974
I12
sI1975
I8
sI1976
I21
sI1977
I16
sI1978
I15
sI1979
I15
sI1980
I15
sI1981
I14
sI1982
I16
sI1983
I20
sI1984
I8
sI1985
I19
sI1986
I12
sI1987
I13
sI1988
I28
sI1989
I27
sI1990
I21
sI1991
I35
sI1992
I40
sI1993
I30
sI1994
I26
sI1995
I20
sI1996
I8
sI1997
I12
sI1998
I13
sI1999
I12
sI2000
I4
sI2001
I14
sI2002
I17
sI2003
I11
sI2004
I15
sI2005
I14
sI2006
I19
sI2007
I24
sI2008
I14
sI2009
I13
sI2010
I27
sI2011
I17
sI2012
I24
sI2013
I37
sI2014
I17
sI2015
I24
ssb(dp19
s(ipubmed_timeline
Term
p20
(dp21
g10
Vtreatment
p22
sg12
(dp23
I1817
I1
sI1843
I1
sI1856
I1
sI1868
I1
sI1869
I2
sI1872
I2
sI1874
I2
sI1875
I2
sI1879
I1
sI1883
I1
sI1884
I1
sI1896
I2
sI1897
I2
sI1898
I2
sI1903
I2
sI1905
I1
sI1907
I1
sI1908
I4
sI1909
I13
sI1910
I11
sI1911
I4
sI1912
I6
sI1913
I4
sI1914
I5
sI1915
I5
sI1916
I6
sI1917
I8
sI1918
I6
sI1919
I4
sI1920
I4
sI1921
I20
sI1922
I8
sI1923
I4
sI1924
I4
sI1925
I2
sI1926
I8
sI1927
I7
sI1928
I4
sI1929
I4
sI1930
I4
sI1931
I5
sI1932
I5
sI1933
I5
sI1934
I7
sI1935
I6
sI1936
I8
sI1937
I3
sI1938
I3
sI1939
I3
sI1940
I5
sI1941
I6
sI1942
I3
sI1943
I4
sI1944
I4
sI1945
I28
sI1946
I110
sI1947
I91
sI1948
I101
sI1949
I98
sI1950
I137
sI1951
I99
sI1952
I65
sI1953
I63
sI1954
I60
sI1955
I52
sI1956
I44
sI1957
I31
sI1958
I32
sI1959
I39
sI1960
I18
sI1961
I29
sI1962
I33
sI1963
I34
sI1964
I45
sI1965
I45
sI1966
I26
sI1967
I26
sI1968
I21
sI1969
I25
sI1970
I14
sI1971
I33
sI1972
I35
sI1973
I33
sI1974
I16
sI1975
I20
sI1976
I51
sI1977
I20
sI1978
I12
sI1979
I21
sI1980
I17
sI1981
I21
sI1982
I16
sI1983
I17
sI1984
I22
sI1985
I14
sI1986
I23
sI1987
I22
sI1988
I18
sI1989
I21
sI1990
I15
sI1991
I16
sI1992
I6
sI1993
I9
sI1994
I14
sI1995
I15
sI1996
I10
sI1997
I12
sI1998
I11
sI1999
I16
sI2000
I15
sI2001
I11
sI2002
I12
sI2003
I14
sI2004
I19
sI2005
I9
sI2006
I9
sI2007
I16
sI2008
I11
sI2009
I13
sI2010
I14
sI2011
I12
sI2012
I19
sI2013
I14
sI2014
I21
sI2015
I24
ssb(dp24
s(ipubmed_timeline
Term
p25
(dp26
g10
Vstudy
p27
sg12
(dp28
I1908
I1
sI1910
I1
sI1912
I1
sI1913
I1
sI1916
I1
sI1920
I1
sI1922
I1
sI1926
I1
sI1927
I1
sI1928
I1
sI1929
I1
sI1930
I1
sI1937
I1
sI1938
I2
sI1939
I1
sI1940
I1
sI1944
I1
sI1945
I2
sI1946
I10
sI1947
I7
sI1948
I9
sI1949
I18
sI1950
I19
sI1951
I22
sI1952
I16
sI1953
I26
sI1954
I22
sI1955
I14
sI1956
I12
sI1957
I13
sI1958
I14
sI1959
I10
sI1960
I10
sI1961
I7
sI1962
I17
sI1963
I15
sI1964
I23
sI1965
I9
sI1966
I10
sI1967
I15
sI1968
I23
sI1969
I23
sI1970
I16
sI1971
I16
sI1972
I17
sI1973
I17
sI1974
I18
sI1975
I9
sI1976
I9
sI1977
I13
sI1978
I13
sI1979
I9
sI1980
I13
sI1981
I8
sI1982
I10
sI1983
I7
sI1984
I16
sI1985
I8
sI1986
I5
sI1987
I10
sI1988
I6
sI1989
I11
sI1990
I9
sI1991
I14
sI1992
I15
sI1993
I14
sI1994
I13
sI1995
I15
sI1996
I17
sI1997
I12
sI1998
I14
sI1999
I16
sI2000
I15
sI2001
I9
sI2002
I15
sI2003
I15
sI2004
I12
sI2005
I12
sI2006
I24
sI2007
I26
sI2008
I13
sI2009
I16
sI2010
I16
sI2011
I20
sI2012
I31
sI2013
I24
sI2014
I45
sI2015
I38
ssb(dp29
s(ipubmed_timeline
Term
p30
(dp31
g10
VDIAGNOSIS
p32
sg12
(dp33
I1905
I1
sI1908
I1
sI1909
I5
sI1911
I7
sI1912
I2
sI1913
I2
sI1914
I2
sI1915
I3
sI1917
I4
sI1918
I2
sI1920
I1
sI1921
I20
sI1922
I2
sI1923
I2
sI1924
I2
sI1926
I2
sI1927
I1
sI1928
I6
sI1929
I2
sI1931
I3
sI1933
I2
sI1934
I2
sI1937
I1
sI1939
I2
sI1940
I1
sI1942
I1
sI1944
I2
sI1945
I6
sI1946
I15
sI1947
I20
sI1948
I15
sI1949
I18
sI1950
I36
sI1951
I36
sI1952
I33
sI1953
I27
sI1954
I34
sI1955
I25
sI1956
I39
sI1957
I17
sI1958
I20
sI1959
I12
sI1960
I26
sI1961
I15
sI1962
I19
sI1963
I36
sI1964
I65
sI1965
I32
sI1966
I27
sI1967
I26
sI1968
I31
sI1969
I26
sI1970
I16
sI1971
I27
sI1972
I21
sI1973
I35
sI1974
I26
sI1975
I22
sI1976
I31
sI1977
I21
sI1978
I16
sI1979
I22
sI1980
I16
sI1981
I18
sI1982
I14
sI1983
I28
sI1984
I19
sI1985
I24
sI1986
I19
sI1987
I16
sI1988
I12
sI1989
I20
sI1990
I14
sI1991
I11
sI1992
I14
sI1993
I17
sI1994
I12
sI1995
I13
sI1996
I12
sI1997
I7
sI1998
I18
sI1999
I11
sI2000
I16
sI2001
I13
sI2002
I12
sI2003
I14
sI2004
I10
sI2005
I17
sI2006
I23
sI2007
I23
sI2008
I22
sI2009
I10
sI2010
I18
sI2011
I25
sI2012
I34
sI2013
I36
sI2014
I31
sI2015
I37
ssb(dp34
s(ipubmed_timeline
Term
p35
(dp36
g10
S'Penicillins/therapeutic use'
p37
sg12
(dp38
I1948
I3
sI1950
I4
sI1951
I56
sI1952
I107
sI1953
I94
sI1954
I67
sI1955
I40
sI1956
I35
sI1957
I39
sI1958
I22
sI1959
I9
sI1965
I26
sI1966
I22
sI1967
I28
sI1968
I27
sI1969
I35
sI1970
I28
sI1971
I39
sI1972
I25
sI1973
I38
sI1974
I20
sI1975
I16
sI1976
I22
sI1977
I12
sI1978
I14
sI1979
I15
sI1980
I6
sI1981
I15
sI1982
I13
sI1983
I10
sI1984
I11
sI1985
I13
sI1986
I6
sI1987
I13
sI1988
I14
sI1989
I8
sI1990
I15
sI1991
I11
sI1992
I10
sI1993
I6
sI1994
I10
sI1995
I14
sI1996
I13
sI1997
I14
sI1998
I15
sI1999
I16
sI2000
I13
sI2001
I14
sI2002
I20
sI2003
I15
sI2004
I9
sI2005
I9
sI2006
I18
sI2007
I11
sI2008
I11
sI2009
I8
sI2010
I11
sI2011
I14
sI2012
I15
sI2013
I17
sI2014
I11
sI2015
I6
ssb(dp39
s(ipubmed_timeline
Term
p40
(dp41
g10
Vinfection
p42
sg12
(dp43
I1920
I3
sI1924
I2
sI1927
I1
sI1928
I2
sI1930
I1
sI1935
I1
sI1945
I1
sI1946
I3
sI1947
I1
sI1948
I3
sI1949
I5
sI1950
I3
sI1951
I8
sI1952
I9
sI1953
I3
sI1954
I4
sI1955
I5
sI1956
I6
sI1957
I6
sI1958
I7
sI1959
I5
sI1960
I8
sI1961
I3
sI1962
I3
sI1963
I4
sI1964
I13
sI1965
I9
sI1966
I5
sI1967
I4
sI1968
I4
sI1969
I8
sI1970
I2
sI1971
I6
sI1972
I7
sI1973
I5
sI1974
I7
sI1975
I7
sI1976
I10
sI1977
I7
sI1978
I7
sI1979
I6
sI1980
I7
sI1981
I11
sI1982
I7
sI1983
I6
sI1984
I15
sI1985
I9
sI1986
I13
sI1987
I14
sI1988
I33
sI1989
I37
sI1990
I42
sI1991
I45
sI1992
I54
sI1993
I46
sI1994
I56
sI1995
I30
sI1996
I34
sI1997
I36
sI1998
I32
sI1999
I30
sI2000
I27
sI2001
I32
sI2002
I19
sI2003
I36
sI2004
I26
sI2005
I29
sI2006
I28
sI2007
I30
sI2008
I39
sI2009
I34
sI2010
I36
sI2011
I45
sI2012
I50
sI2013
I61
sI2014
I65
sI2015
I70
sI1910
I1
sI1914
I1
ssb(dp44
s(ipubmed_timeline
Term
p45
(dp46
g10
Vhiv
p47
sg12
(dp48
I1987
I11
sI1988
I19
sI1989
I28
sI1990
I29
sI1991
I36
sI1992
I29
sI1993
I41
sI1994
I40
sI1995
I26
sI1996
I35
sI1997
I32
sI1998
I35
sI1999
I32
sI2000
I30
sI2001
I42
sI2002
I34
sI2003
I48
sI2004
I51
sI2005
I53
sI2006
I69
sI2007
I48
sI2008
I72
sI2009
I81
sI2010
I69
sI2011
I77
sI2012
I115
sI2013
I101
sI2014
I133
sI2015
I128
ssb(dp49
s(ipubmed_timeline
Term
p50
(dp51
g10
VBLOOD
p52
sg12
(dp53
I1934
I2
sI1936
I1
sI1939
I1
sI1942
I1
sI1945
I2
sI1946
I15
sI1947
I7
sI1948
I8
sI1949
I9
sI1950
I34
sI1951
I32
sI1952
I24
sI1953
I21
sI1954
I22
sI1955
I23
sI1956
I10
sI1957
I20
sI1958
I12
sI1959
I8
sI1960
I3
sI1961
I6
sI1962
I9
sI1963
I14
sI1964
I11
sI1965
I16
sI1966
I8
sI1967
I8
sI1968
I9
sI1969
I15
sI1970
I8
sI1971
I16
sI1972
I7
sI1973
I8
sI1974
I11
sI1975
I8
sI1976
I5
sI1977
I8
sI1978
I7
sI1979
I9
sI1980
I6
sI1981
I4
sI1982
I13
sI1983
I6
sI1984
I9
sI1985
I5
sI1986
I3
sI1987
I9
sI1988
I7
sI1989
I11
sI1990
I9
sI1991
I15
sI1992
I9
sI1993
I12
sI1994
I9
sI1995
I18
sI1996
I9
sI1997
I8
sI1998
I12
sI1999
I9
sI2000
I9
sI2001
I9
sI2002
I16
sI2003
I18
sI2004
I9
sI2005
I9
sI2006
I10
sI2007
I17
sI2008
I13
sI2009
I24
sI2010
I12
sI2011
I16
sI2012
I29
sI2013
I27
sI2014
I34
sI2015
I29
sI1915
I1
ssb(dp54
s(ipubmed_timeline
Term
p55
(dp56
g10
VPLACES
p57
sg12
(dp58
I1931
I1
sI1936
I1
sI1937
I1
sI1943
I1
sI1946
I4
sI1947
I2
sI1948
I2
sI1950
I5
sI1951
I7
sI1952
I8
sI1953
I8
sI1954
I7
sI1955
I7
sI1956
I2
sI1957
I5
sI1958
I12
sI1959
I1
sI1960
I3
sI1961
I2
sI1962
I3
sI1963
I5
sI1964
I12
sI1965
I6
sI1966
I12
sI1967
I9
sI1968
I10
sI1969
I5
sI1970
I10
sI1971
I5
sI1972
I11
sI1973
I9
sI1974
I6
sI1976
I7
sI1977
I10
sI1978
I5
sI1979
I6
sI1980
I7
sI1981
I6
sI1982
I10
sI1983
I5
sI1984
I13
sI1985
I11
sI1986
I10
sI1987
I11
sI1988
I7
sI1989
I15
sI1990
I9
sI1991
I15
sI1992
I24
sI1993
I23
sI1994
I45
sI1995
I22
sI1996
I27
sI1997
I31
sI1998
I26
sI1999
I48
sI2000
I36
sI2001
I41
sI2002
I42
sI2003
I54
sI2004
I42
sI2005
I51
sI2006
I56
sI2007
I54
sI2008
I67
sI2009
I77
sI2010
I95
sI2011
I98
sI2012
I129
sI2013
I104
sI2014
I139
sI2015
I132
sI1896
I1
sI1906
I1
sI1909
I1
sI1911
I1
sI1876
I2
ssb(dp59
s(ipubmed_timeline
Term
p60
(dp61
g10
VDISEASE
p62
sg12
(dp63
I1817
I1
sI1827
I1
sI1863
I1
sI1864
I2
sI1874
I9
sI1876
I1
sI1877
I1
sI1892
I1
sI1895
I1
sI1902
I1
sI1908
I2
sI1910
I2
sI1912
I19
sI1913
I9
sI1914
I2
sI1916
I2
sI1918
I1
sI1920
I1
sI1924
I2
sI1926
I3
sI1928
I2
sI1929
I2
sI1932
I1
sI1933
I1
sI1934
I3
sI1935
I1
sI1936
I1
sI1938
I1
sI1939
I2
sI1941
I1
sI1942
I1
sI1945
I2
sI1946
I11
sI1947
I8
sI1948
I7
sI1949
I11
sI1950
I17
sI1951
I23
sI1952
I18
sI1953
I21
sI1954
I16
sI1955
I16
sI1956
I17
sI1957
I16
sI1958
I17
sI1959
I6
sI1960
I17
sI1961
I11
sI1962
I12
sI1963
I44
sI1964
I55
sI1965
I21
sI1966
I48
sI1967
I36
sI1968
I33
sI1969
I48
sI1970
I36
sI1971
I55
sI1972
I59
sI1973
I65
sI1974
I47
sI1975
I47
sI1976
I46
sI1977
I35
sI1978
I42
sI1979
I38
sI1980
I48
sI1981
I38
sI1982
I49
sI1983
I56
sI1984
I57
sI1985
I45
sI1986
I42
sI1987
I45
sI1988
I43
sI1989
I57
sI1990
I80
sI1991
I74
sI1992
I71
sI1993
I75
sI1994
I88
sI1995
I68
sI1996
I66
sI1997
I54
sI1998
I55
sI1999
I57
sI2000
I65
sI2001
I62
sI2002
I65
sI2003
I62
sI2004
I48
sI2005
I62
sI2006
I52
sI2007
I43
sI2008
I55
sI2009
I52
sI2010
I48
sI2011
I52
sI2012
I53
sI2013
I61
sI2014
I54
sI2015
I61
ssb(dp64
s(ipubmed_timeline
Term
p65
(dp66
g10
Vhuman
p67
sg12
(dp68
I1939
I1
sI1945
I2
sI1946
I6
sI1947
I1
sI1949
I1
sI1950
I3
sI1951
I4
sI1953
I3
sI1954
I3
sI1955
I5
sI1956
I3
sI1957
I4
sI1958
I1
sI1959
I4
sI1960
I2
sI1961
I1
sI1962
I4
sI1963
I2
sI1964
I7
sI1965
I3
sI1966
I9
sI1967
I2
sI1968
I5
sI1969
I6
sI1970
I5
sI1971
I2
sI1972
I4
sI1973
I4
sI1974
I7
sI1975
I5
sI1976
I5
sI1977
I3
sI1978
I2
sI1979
I2
sI1981
I5
sI1982
I3
sI1983
I4
sI1984
I7
sI1985
I4
sI1986
I6
sI1987
I13
sI1988
I21
sI1989
I31
sI1990
I37
sI1991
I21
sI1992
I32
sI1993
I23
sI1994
I26
sI1995
I34
sI1996
I23
sI1997
I21
sI1998
I12
sI1999
I23
sI2000
I15
sI2001
I12
sI2002
I10
sI2003
I20
sI2004
I8
sI2005
I12
sI2006
I17
sI2007
I11
sI2008
I13
sI2009
I18
sI2010
I21
sI2011
I17
sI2012
I21
sI2013
I29
sI2014
I22
sI2015
I29
sI1908
I1
sI1916
I1
ssb(dp69
s(ipubmed_timeline
Term
p70
(dp71
g10
S'Anti-Bacterial Agents/therapeutic use'
p72
sg12
(dp73
I1952
I1
sI1953
I4
sI1954
I4
sI1955
I4
sI1957
I4
sI1958
I2
sI1959
I1
sI1965
I3
sI1966
I8
sI1967
I3
sI1968
I8
sI1969
I11
sI1970
I7
sI1971
I11
sI1972
I6
sI1973
I6
sI1974
I8
sI1975
I8
sI1976
I10
sI1978
I4
sI1979
I8
sI1980
I4
sI1981
I4
sI1982
I4
sI1983
I5
sI1984
I11
sI1985
I4
sI1986
I5
sI1987
I7
sI1988
I6
sI1989
I3
sI1990
I6
sI1991
I7
sI1992
I3
sI1993
I6
sI1994
I5
sI1995
I3
sI1996
I7
sI1997
I6
sI1998
I3
sI1999
I5
sI2000
I5
sI2001
I4
sI2002
I10
sI2003
I10
sI2004
I26
sI2005
I24
sI2006
I34
sI2007
I24
sI2008
I30
sI2009
I42
sI2010
I36
sI2011
I37
sI2012
I41
sI2013
I57
sI2014
I49
sI2015
I46
ssb(dp74
s(ipubmed_timeline
Term
p75
(dp76
g10
S'Incidence'
p77
sg12
(dp78
I1946
I5
sI1947
I3
sI1948
I8
sI1949
I3
sI1950
I3
sI1951
I4
sI1952
I11
sI1953
I4
sI1954
I5
sI1955
I3
sI1956
I4
sI1957
I2
sI1958
I4
sI1959
I4
sI1960
I4
sI1961
I2
sI1962
I5
sI1963
I5
sI1964
I5
sI1965
I4
sI1968
I1
sI1973
I1
sI1976
I1
sI1977
I2
sI1978
I1
sI1979
I1
sI1980
I1
sI1981
I2
sI1984
I3
sI1985
I3
sI1986
I1
sI1987
I1
sI1988
I2
sI1989
I8
sI1990
I30
sI1991
I24
sI1992
I16
sI1993
I21
sI1994
I29
sI1995
I36
sI1996
I33
sI1997
I22
sI1998
I30
sI1999
I32
sI2000
I32
sI2001
I33
sI2002
I32
sI2003
I29
sI2004
I18
sI2005
I45
sI2006
I32
sI2007
I29
sI2008
I32
sI2009
I35
sI2010
I43
sI2011
I35
sI2012
I35
sI2013
I46
sI2014
I55
sI2015
I49
ssb(dp79
s(ipubmed_timeline
Term
p80
(dp81
g10
S'Syphilis Serodiagnosis'
p82
sg12
(dp83
I1942
I1
sI1945
I29
sI1946
I103
sI1947
I94
sI1948
I84
sI1949
I49
sI1950
I36
sI1951
I40
sI1952
I33
sI1953
I33
sI1954
I34
sI1955
I29
sI1956
I24
sI1957
I18
sI1958
I23
sI1959
I19
sI1960
I9
sI1961
I12
sI1962
I50
sI1963
I114
sI1964
I156
sI1965
I147
sI1966
I105
sI1967
I135
sI1968
I172
sI1969
I149
sI1970
I142
sI1971
I164
sI1972
I137
sI1973
I109
sI1974
I103
sI1975
I64
sI1976
I64
sI1977
I46
sI1978
I58
sI1979
I64
sI1980
I40
sI1981
I45
sI1982
I69
sI1983
I43
sI1984
I52
sI1985
I46
sI1986
I26
sI1987
I51
sI1988
I50
sI1989
I76
sI1990
I54
sI1991
I54
sI1992
I52
sI1993
I37
sI1994
I39
sI1995
I29
sI1996
I25
sI1997
I21
sI1998
I19
sI1999
I19
sI2000
I20
sI2001
I25
sI2002
I29
sI2003
I25
sI2004
I28
sI2005
I39
sI2006
I30
sI2007
I32
sI2008
I36
sI2009
I41
sI2010
I24
sI2011
I20
sI2012
I31
sI2013
I42
sI2014
I29
sI2015
I29
ssb(dp84
s(ipubmed_timeline
Term
p85
(dp86
g10
S'Age Factors'
p87
sg12
(dp88
I1960
I2
sI1966
I2
sI1967
I12
sI1968
I11
sI1969
I26
sI1970
I27
sI1971
I24
sI1972
I26
sI1973
I26
sI1974
I20
sI1975
I18
sI1976
I8
sI1977
I6
sI1978
I5
sI1979
I8
sI1980
I10
sI1981
I8
sI1982
I3
sI1983
I14
sI1984
I8
sI1985
I11
sI1986
I5
sI1987
I6
sI1988
I15
sI1989
I11
sI1990
I28
sI1991
I16
sI1992
I30
sI1993
I20
sI1994
I21
sI1995
I11
sI1996
I9
sI1997
I14
sI1998
I7
sI1999
I9
sI2000
I7
sI2001
I10
sI2002
I14
sI2003
I11
sI2004
I8
sI2005
I5
sI2006
I7
sI2007
I9
sI2008
I10
sI2009
I7
sI2010
I13
sI2011
I12
sI2012
I14
sI2013
I8
sI2014
I20
sI2015
I7
ssb(dp89
s(ipubmed_timeline
Term
p90
(dp91
g10
VTREPONEMA
p92
sg12
(dp93
I1922
I1
sI1925
I1
sI1934
I1
sI1938
I1
sI1939
I1
sI1946
I3
sI1947
I3
sI1948
I3
sI1949
I4
sI1950
I7
sI1951
I18
sI1952
I19
sI1953
I36
sI1954
I21
sI1955
I30
sI1956
I31
sI1957
I35
sI1958
I25
sI1959
I15
sI1960
I14
sI1961
I9
sI1962
I4
sI1963
I9
sI1964
I14
sI1965
I13
sI1966
I14
sI1967
I19
sI1968
I14
sI1969
I23
sI1970
I17
sI1971
I13
sI1972
I28
sI1973
I11
sI1974
I13
sI1975
I15
sI1976
I16
sI1977
I20
sI1978
I7
sI1979
I18
sI1980
I23
sI1981
I25
sI1982
I17
sI1983
I21
sI1984
I17
sI1985
I22
sI1986
I16
sI1987
I10
sI1988
I18
sI1989
I12
sI1990
I11
sI1991
I8
sI1992
I16
sI1993
I8
sI1994
I10
sI1995
I12
sI1996
I8
sI1997
I10
sI1998
I12
sI1999
I10
sI2000
I11
sI2001
I7
sI2002
I8
sI2003
I9
sI2004
I17
sI2005
I10
sI2006
I12
sI2007
I11
sI2008
I9
sI2009
I16
sI2010
I9
sI2011
I18
sI2012
I22
sI2013
I16
sI2014
I18
sI2015
I22
sI1906
I1
sI1907
I1
sI1912
I1
sI1913
I2
sI1915
I1
sI1916
I5
ssb(dp94
s(ipubmed_timeline
Term
p95
(dp96
g10
VAGE GROUPS
p97
sg12
(dp98
I1921
I2
sI1925
I1
sI1932
I1
sI1934
I2
sI1935
I1
sI1943
I1
sI1945
I9
sI1946
I20
sI1947
I34
sI1948
I16
sI1949
I15
sI1950
I31
sI1951
I42
sI1952
I42
sI1953
I45
sI1954
I29
sI1955
I11
sI1956
I34
sI1957
I40
sI1958
I21
sI1959
I20
sI1960
I20
sI1961
I12
sI1962
I34
sI1963
I78
sI1964
I143
sI1965
I257
sI1966
I382
sI1967
I491
sI1968
I444
sI1969
I494
sI1970
I512
sI1971
I511
sI1972
I498
sI1973
I410
sI1974
I452
sI1975
I399
sI1976
I400
sI1977
I378
sI1978
I302
sI1979
I354
sI1980
I392
sI1981
I373
sI1982
I413
sI1983
I365
sI1984
I384
sI1985
I401
sI1986
I306
sI1987
I337
sI1988
I396
sI1989
I385
sI1990
I498
sI1991
I426
sI1992
I450
sI1993
I499
sI1994
I488
sI1995
I434
sI1996
I351
sI1997
I365
sI1998
I384
sI1999
I443
sI2000
I403
sI2001
I444
sI2002
I461
sI2003
I496
sI2004
I433
sI2005
I547
sI2006
I561
sI2007
I567
sI2008
I691
sI2009
I813
sI2010
I811
sI2011
I868
sI2012
I988
sI2013
I942
sI2014
I996
sI2015
I860
sI1901
I1
sI1875
I1
sI1909
I2
sI1911
I1
sI1912
I2
sI1917
I1
sI1918
I6
ssb(dp99
s(ipubmed_timeline
Term
p100
(dp101
g10
S'Syphilis/diagnosis'
p102
sg12
(dp103
I1945
I4
sI1946
I9
sI1947
I11
sI1948
I39
sI1949
I11
sI1950
I1
sI1951
I76
sI1952
I189
sI1953
I165
sI1954
I143
sI1955
I144
sI1956
I151
sI1957
I101
sI1958
I110
sI1959
I56
sI1960
I63
sI1961
I53
sI1962
I33
sI1964
I1
sI1965
I10
sI1966
I21
sI1967
I24
sI1968
I42
sI1969
I26
sI1970
I26
sI1971
I38
sI1972
I37
sI1973
I51
sI1974
I32
sI1975
I25
sI1976
I35
sI1977
I22
sI1978
I25
sI1979
I23
sI1980
I22
sI1981
I24
sI1982
I20
sI1983
I26
sI1984
I17
sI1985
I20
sI1986
I27
sI1987
I15
sI1988
I8
sI1989
I15
sI1990
I16
sI1991
I8
sI1992
I15
sI1993
I10
sI1994
I13
sI1995
I12
sI1996
I9
sI1997
I12
sI1998
I8
sI1999
I9
sI2000
I10
sI2001
I8
sI2002
I7
sI2003
I10
sI2004
I8
sI2005
I12
sI2006
I24
sI2007
I27
sI2008
I31
sI2009
I30
sI2010
I30
sI2011
I41
sI2012
I22
sI2013
I29
sI2014
I31
sI2015
I37
ssb(dp104
s(ipubmed_timeline
Term
p105
(dp106
g10
S'Animals'
p107
sg12
(dp108
I1945
I3
sI1946
I17
sI1947
I15
sI1948
I15
sI1949
I6
sI1950
I27
sI1951
I19
sI1952
I12
sI1953
I13
sI1954
I17
sI1955
I11
sI1956
I16
sI1957
I11
sI1958
I7
sI1959
I7
sI1960
I5
sI1961
I7
sI1962
I3
sI1963
I18
sI1964
I23
sI1965
I22
sI1966
I25
sI1967
I35
sI1968
I40
sI1969
I41
sI1970
I28
sI1971
I38
sI1972
I49
sI1973
I29
sI1974
I28
sI1975
I26
sI1976
I26
sI1977
I35
sI1978
I19
sI1979
I30
sI1980
I33
sI1981
I34
sI1982
I31
sI1983
I35
sI1984
I34
sI1985
I44
sI1986
I26
sI1987
I28
sI1988
I29
sI1989
I22
sI1990
I21
sI1991
I37
sI1992
I30
sI1993
I22
sI1994
I18
sI1995
I17
sI1996
I12
sI1997
I15
sI1998
I15
sI1999
I19
sI2000
I17
sI2001
I21
sI2002
I12
sI2003
I13
sI2004
I22
sI2005
I21
sI2006
I20
sI2007
I16
sI2008
I19
sI2009
I14
sI2010
I16
sI2011
I13
sI2012
I9
sI2013
I22
sI2014
I11
sI2015
I16
ssb(dp109
s(ipubmed_timeline
Term
p110
(dp111
g10
S'Syphilis/complications'
p112
sg12
(dp113
I1945
I1
sI1946
I4
sI1947
I13
sI1948
I12
sI1949
I12
sI1951
I7
sI1952
I11
sI1953
I31
sI1954
I19
sI1955
I20
sI1956
I22
sI1957
I11
sI1958
I13
sI1959
I11
sI1960
I11
sI1961
I9
sI1962
I5
sI1965
I13
sI1966
I31
sI1967
I30
sI1968
I29
sI1969
I45
sI1970
I43
sI1971
I29
sI1972
I32
sI1973
I39
sI1974
I31
sI1975
I32
sI1976
I24
sI1977
I26
sI1978
I26
sI1979
I16
sI1980
I21
sI1981
I14
sI1982
I21
sI1983
I21
sI1984
I16
sI1985
I13
sI1986
I20
sI1987
I20
sI1988
I14
sI1989
I15
sI1990
I20
sI1991
I16
sI1992
I18
sI1993
I11
sI1994
I18
sI1995
I10
sI1996
I15
sI1997
I6
sI1998
I7
sI1999
I7
sI2000
I14
sI2001
I10
sI2002
I6
sI2003
I6
sI2004
I7
sI2005
I9
sI2006
I6
sI2007
I9
sI2008
I9
sI2009
I9
sI2010
I6
sI2011
I11
sI2012
I6
sI2013
I8
sI2014
I11
sI2015
I12
ssb(dp114
s(ipubmed_timeline
Term
p115
(dp116
g10
S'History, 20th Century'
p117
sg12
(dp118
I1950
I1
sI1951
I1
sI1952
I3
sI1953
I2
sI1954
I2
sI1955
I1
sI1956
I1
sI1957
I4
sI1963
I1
sI1964
I6
sI1965
I3
sI1966
I9
sI1967
I11
sI1968
I7
sI1969
I8
sI1970
I7
sI1971
I8
sI1972
I8
sI1973
I9
sI1974
I12
sI1975
I13
sI1976
I3
sI1977
I12
sI1978
I10
sI1979
I10
sI1980
I10
sI1981
I8
sI1982
I13
sI1983
I11
sI1984
I11
sI1985
I8
sI1986
I7
sI1987
I6
sI1988
I13
sI1989
I9
sI1990
I9
sI1991
I13
sI1992
I13
sI1993
I20
sI1994
I19
sI1995
I24
sI1996
I16
sI1997
I14
sI1998
I14
sI1999
I15
sI2000
I21
sI2001
I25
sI2002
I19
sI2003
I27
sI2004
I23
sI2005
I17
sI2006
I29
sI2007
I19
sI2008
I29
sI2009
I29
sI2010
I30
sI2011
I41
sI2012
I25
sI2013
I31
sI2014
I30
sI2015
I31
ssb(dp119
s(ipubmed_timeline
Term
p120
(dp121
g10
S'Diagnosis, Differential'
p122
sg12
(dp123
I1947
I1
sI1948
I3
sI1949
I2
sI1950
I4
sI1951
I2
sI1952
I6
sI1953
I10
sI1954
I16
sI1955
I7
sI1956
I16
sI1957
I4
sI1958
I8
sI1959
I2
sI1960
I2
sI1962
I2
sI1963
I28
sI1964
I58
sI1965
I22
sI1966
I30
sI1967
I36
sI1968
I46
sI1969
I37
sI1970
I31
sI1971
I48
sI1972
I42
sI1973
I35
sI1974
I32
sI1975
I30
sI1976
I25
sI1977
I23
sI1978
I16
sI1979
I35
sI1980
I32
sI1981
I34
sI1982
I33
sI1983
I24
sI1984
I33
sI1985
I26
sI1986
I24
sI1987
I28
sI1988
I25
sI1989
I24
sI1990
I23
sI1991
I32
sI1992
I25
sI1993
I35
sI1994
I26
sI1995
I32
sI1996
I30
sI1997
I14
sI1998
I29
sI1999
I27
sI2000
I31
sI2001
I29
sI2002
I35
sI2003
I31
sI2004
I52
sI2005
I39
sI2006
I48
sI2007
I27
sI2008
I48
sI2009
I42
sI2010
I48
sI2011
I49
sI2012
I51
sI2013
I64
sI2014
I48
sI2015
I51
ssb(dp124
s(ipubmed_timeline
Term
p125
(dp126
g10
Vinfections
p127
sg12
(dp128
I1925
I1
sI1928
I3
sI1936
I2
sI1947
I1
sI1948
I1
sI1949
I1
sI1950
I1
sI1951
I3
sI1952
I3
sI1954
I1
sI1955
I2
sI1956
I2
sI1957
I1
sI1958
I5
sI1959
I1
sI1961
I5
sI1962
I2
sI1963
I1
sI1964
I8
sI1965
I3
sI1966
I2
sI1967
I3
sI1968
I3
sI1969
I6
sI1970
I1
sI1971
I5
sI1972
I6
sI1973
I8
sI1974
I7
sI1975
I6
sI1976
I9
sI1977
I7
sI1978
I6
sI1979
I11
sI1980
I3
sI1981
I8
sI1982
I5
sI1983
I12
sI1984
I3
sI1985
I10
sI1986
I10
sI1987
I6
sI1988
I6
sI1989
I6
sI1990
I9
sI1991
I17
sI1992
I8
sI1993
I14
sI1994
I13
sI1995
I14
sI1996
I11
sI1997
I12
sI1998
I12
sI1999
I22
sI2000
I15
sI2001
I26
sI2002
I30
sI2003
I28
sI2004
I27
sI2005
I45
sI2006
I45
sI2007
I43
sI2008
I50
sI2009
I61
sI2010
I64
sI2011
I54
sI2012
I68
sI2013
I60
sI2014
I77
sI2015
I64
sI1911
I1
ssb(dp129
s(ipubmed_timeline
Term
p130
(dp131
g10
Vsexually
p132
sg12
(dp133
I1967
I1
sI1969
I1
sI1970
I2
sI1971
I2
sI1972
I1
sI1973
I5
sI1974
I3
sI1975
I5
sI1976
I8
sI1977
I10
sI1978
I11
sI1979
I11
sI1980
I21
sI1981
I17
sI1982
I23
sI1983
I23
sI1984
I32
sI1985
I25
sI1986
I23
sI1987
I24
sI1988
I19
sI1989
I27
sI1990
I45
sI1991
I32
sI1992
I31
sI1993
I44
sI1994
I45
sI1995
I36
sI1996
I41
sI1997
I30
sI1998
I31
sI1999
I41
sI2000
I41
sI2001
I40
sI2002
I45
sI2003
I50
sI2004
I31
sI2005
I57
sI2006
I56
sI2007
I51
sI2008
I57
sI2009
I50
sI2010
I54
sI2011
I50
sI2012
I67
sI2013
I56
sI2014
I66
sI2015
I48
ssb(dp134
s(ipubmed_timeline
Term
p135
(dp136
g10
Vtransmitted
p137
sg12
(dp138
I1953
I1
sI1955
I1
sI1956
I1
sI1967
I1
sI1969
I1
sI1970
I2
sI1971
I3
sI1972
I2
sI1973
I5
sI1974
I3
sI1975
I4
sI1976
I8
sI1977
I11
sI1978
I11
sI1979
I10
sI1980
I16
sI1981
I15
sI1982
I24
sI1983
I23
sI1984
I27
sI1985
I24
sI1986
I19
sI1987
I20
sI1988
I17
sI1989
I21
sI1990
I37
sI1991
I30
sI1992
I29
sI1993
I38
sI1994
I37
sI1995
I29
sI1996
I38
sI1997
I26
sI1998
I26
sI1999
I37
sI2000
I31
sI2001
I34
sI2002
I39
sI2003
I40
sI2004
I31
sI2005
I46
sI2006
I47
sI2007
I41
sI2008
I30
sI2009
I44
sI2010
I40
sI2011
I43
sI2012
I48
sI2013
I42
sI2014
I53
sI2015
I38
ssb(dp139
s(ipubmed_timeline
Term
p140
(dp141
g10
S'Cross-Sectional Studies'
p142
sg12
(dp143
I1964
I1
sI1982
I1
sI1985
I1
sI1986
I2
sI1987
I1
sI1988
I4
sI1989
I14
sI1990
I3
sI1991
I11
sI1992
I8
sI1993
I11
sI1994
I12
sI1995
I23
sI1996
I14
sI1997
I18
sI1998
I18
sI1999
I14
sI2000
I19
sI2001
I19
sI2002
I22
sI2003
I35
sI2004
I18
sI2005
I25
sI2006
I29
sI2007
I38
sI2008
I39
sI2009
I46
sI2010
I42
sI2011
I46
sI2012
I64
sI2013
I65
sI2014
I93
sI2015
I55
ssb(dp144
s(ipubmed_timeline
Term
p145
(dp146
g10
S'Prevalence'
p147
sg12
(dp148
I1948
I1
sI1949
I3
sI1951
I1
sI1953
I1
sI1954
I3
sI1956
I1
sI1960
I1
sI1961
I1
sI1962
I1
sI1963
I1
sI1964
I1
sI1972
I1
sI1976
I1
sI1980
I4
sI1984
I5
sI1985
I4
sI1986
I3
sI1987
I4
sI1988
I2
sI1989
I11
sI1990
I38
sI1991
I40
sI1992
I49
sI1993
I50
sI1994
I63
sI1995
I54
sI1996
I43
sI1997
I52
sI1998
I59
sI1999
I51
sI2000
I44
sI2001
I60
sI2002
I67
sI2003
I64
sI2004
I42
sI2005
I54
sI2006
I62
sI2007
I60
sI2008
I72
sI2009
I77
sI2010
I78
sI2011
I82
sI2012
I112
sI2013
I117
sI2014
I129
sI2015
I99
ssb(dp149
s(ipubmed_timeline
Term
p150
(dp151
g10
S'Risk Factors'
p152
sg12
(dp153
I1978
I1
sI1986
I1
sI1987
I6
sI1988
I18
sI1989
I26
sI1990
I41
sI1991
I51
sI1992
I60
sI1993
I56
sI1994
I77
sI1995
I54
sI1996
I60
sI1997
I46
sI1998
I44
sI1999
I45
sI2000
I46
sI2001
I66
sI2002
I54
sI2003
I64
sI2004
I48
sI2005
I71
sI2006
I67
sI2007
I55
sI2008
I61
sI2009
I69
sI2010
I84
sI2011
I59
sI2012
I85
sI2013
I80
sI2014
I107
sI2015
I78
ssb(dp154
s(ipubmed_timeline
Term
p155
(dp156
g10
VSYPHILIS
p157
sg12
(dp158
I1817
I1
sI1827
I1
sI1841
I2
sI1842
I1
sI1843
I2
sI1852
I1
sI1856
I1
sI1862
I1
sI1863
I1
sI1864
I2
sI1865
I4
sI1866
I1
sI1868
I3
sI1869
I3
sI1871
I2
sI1872
I4
sI1873
I3
sI1874
I15
sI1875
I4
sI1876
I4
sI1877
I2
sI1878
I2
sI1879
I3
sI1880
I1
sI1882
I2
sI1883
I1
sI1884
I2
sI1885
I1
sI1886
I4
sI1887
I3
sI1888
I1
sI1889
I6
sI1890
I1
sI1891
I1
sI1892
I1
sI1893
I1
sI1895
I1
sI1896
I3
sI1897
I3
sI1898
I2
sI1899
I1
sI1900
I2
sI1901
I3
sI1902
I1
sI1903
I5
sI1904
I1
sI1905
I7
sI1906
I7
sI1907
I4
sI1908
I18
sI1909
I33
sI1910
I25
sI1911
I36
sI1912
I39
sI1913
I30
sI1914
I18
sI1915
I22
sI1916
I25
sI1917
I19
sI1918
I23
sI1919
I11
sI1920
I20
sI1921
I38
sI1922
I20
sI1923
I25
sI1924
I22
sI1925
I22
sI1926
I31
sI1927
I25
sI1928
I18
sI1929
I33
sI1930
I27
sI1931
I22
sI1932
I21
sI1933
I14
sI1934
I27
sI1935
I25
sI1936
I22
sI1937
I25
sI1938
I27
sI1939
I27
sI1940
I18
sI1941
I13
sI1942
I17
sI1943
I23
sI1944
I18
sI1945
I231
sI1946
I689
sI1947
I765
sI1948
I702
sI1949
I893
sI1950
I2016
sI1951
I1647
sI1952
I957
sI1953
I747
sI1954
I633
sI1955
I542
sI1956
I471
sI1957
I402
sI1958
I350
sI1959
I267
sI1960
I274
sI1961
I250
sI1962
I395
sI1963
I852
sI1964
I1134
sI1965
I565
sI1966
I199
sI1967
I221
sI1968
I178
sI1969
I191
sI1970
I178
sI1971
I203
sI1972
I186
sI1973
I184
sI1974
I163
sI1975
I151
sI1976
I197
sI1977
I155
sI1978
I140
sI1979
I159
sI1980
I153
sI1981
I162
sI1982
I167
sI1983
I158
sI1984
I153
sI1985
I170
sI1986
I129
sI1987
I151
sI1988
I157
sI1989
I194
sI1990
I207
sI1991
I165
sI1992
I194
sI1993
I153
sI1994
I146
sI1995
I142
sI1996
I106
sI1997
I108
sI1998
I121
sI1999
I129
sI2000
I118
sI2001
I139
sI2002
I145
sI2003
I142
sI2004
I169
sI2005
I164
sI2006
I213
sI2007
I192
sI2008
I206
sI2009
I206
sI2010
I225
sI2011
I245
sI2012
I264
sI2013
I418
sI2014
I380
sI2015
I423
ssb(dp159
s(ipubmed_timeline
Term
p160
(dp161
g10
VMETHODS
p162
sg12
(dp163
I1862
I1
sI1871
I3
sI1873
I1
sI1876
I1
sI1908
I1
sI1909
I1
sI1911
I2
sI1912
I2
sI1914
I1
sI1916
I1
sI1917
I1
sI1918
I3
sI1919
I1
sI1920
I2
sI1921
I2
sI1922
I1
sI1924
I2
sI1925
I4
sI1927
I3
sI1929
I2
sI1931
I2
sI1932
I2
sI1937
I3
sI1939
I2
sI1940
I2
sI1941
I1
sI1942
I1
sI1943
I4
sI1944
I1
sI1945
I8
sI1946
I41
sI1947
I23
sI1948
I31
sI1949
I28
sI1950
I40
sI1951
I56
sI1952
I34
sI1953
I29
sI1954
I40
sI1955
I25
sI1956
I24
sI1957
I21
sI1958
I22
sI1959
I18
sI1960
I13
sI1961
I17
sI1962
I12
sI1963
I19
sI1964
I25
sI1965
I21
sI1966
I14
sI1967
I25
sI1968
I20
sI1969
I23
sI1970
I19
sI1971
I19
sI1972
I11
sI1973
I29
sI1974
I16
sI1975
I14
sI1976
I18
sI1977
I20
sI1978
I17
sI1979
I18
sI1980
I18
sI1981
I22
sI1982
I15
sI1983
I22
sI1984
I19
sI1985
I18
sI1986
I21
sI1987
I25
sI1988
I27
sI1989
I26
sI1990
I23
sI1991
I18
sI1992
I19
sI1993
I33
sI1994
I26
sI1995
I20
sI1996
I20
sI1997
I18
sI1998
I17
sI1999
I19
sI2000
I18
sI2001
I21
sI2002
I21
sI2003
I25
sI2004
I31
sI2005
I27
sI2006
I31
sI2007
I37
sI2008
I25
sI2009
I30
sI2010
I42
sI2011
I53
sI2012
I62
sI2013
I51
sI2014
I56
sI2015
I58
ssb(dp164
s(ipubmed_timeline
Term
p165
(dp166
g10
VCLINIC
p167
sg12
(dp168
I1841
I1
sI1864
I2
sI1866
I1
sI1868
I1
sI1876
I1
sI1887
I1
sI1891
I1
sI1894
I1
sI1902
I1
sI1910
I1
sI1914
I2
sI1916
I2
sI1920
I1
sI1921
I1
sI1922
I1
sI1923
I1
sI1924
I2
sI1925
I1
sI1926
I2
sI1927
I1
sI1930
I2
sI1931
I1
sI1937
I2
sI1938
I1
sI1942
I1
sI1945
I2
sI1946
I10
sI1947
I3
sI1948
I7
sI1949
I13
sI1950
I20
sI1951
I27
sI1952
I29
sI1953
I18
sI1954
I20
sI1955
I15
sI1956
I15
sI1957
I11
sI1958
I15
sI1959
I10
sI1960
I16
sI1961
I8
sI1962
I15
sI1963
I21
sI1964
I33
sI1965
I19
sI1966
I21
sI1967
I19
sI1968
I21
sI1969
I15
sI1970
I24
sI1971
I19
sI1972
I18
sI1973
I15
sI1974
I15
sI1975
I11
sI1976
I17
sI1977
I11
sI1978
I12
sI1979
I12
sI1980
I14
sI1981
I17
sI1982
I8
sI1983
I8
sI1984
I19
sI1985
I10
sI1986
I18
sI1987
I10
sI1988
I13
sI1989
I13
sI1990
I16
sI1991
I10
sI1992
I9
sI1993
I14
sI1994
I16
sI1995
I5
sI1996
I11
sI1997
I13
sI1998
I5
sI1999
I11
sI2000
I15
sI2001
I10
sI2002
I11
sI2003
I13
sI2004
I16
sI2005
I22
sI2006
I18
sI2007
I21
sI2008
I22
sI2009
I19
sI2010
I12
sI2011
I24
sI2012
I21
sI2013
I26
sI2014
I26
sI2015
I30
ssb(dp169
s(ipubmed_timeline
Term
p170
(dp171
g10
Vpallidum
p172
sg12
(dp173
I1922
I1
sI1924
I1
sI1925
I1
sI1927
I1
sI1932
I1
sI1934
I1
sI1938
I1
sI1944
I1
sI1946
I3
sI1947
I3
sI1948
I3
sI1949
I3
sI1950
I6
sI1951
I10
sI1952
I7
sI1953
I19
sI1954
I15
sI1955
I18
sI1956
I19
sI1957
I26
sI1958
I14
sI1959
I14
sI1960
I5
sI1961
I9
sI1962
I4
sI1963
I7
sI1964
I11
sI1965
I8
sI1966
I12
sI1967
I20
sI1968
I21
sI1969
I23
sI1970
I13
sI1971
I19
sI1972
I29
sI1973
I11
sI1974
I10
sI1975
I15
sI1976
I21
sI1977
I14
sI1978
I11
sI1979
I19
sI1980
I26
sI1981
I19
sI1982
I21
sI1983
I23
sI1984
I26
sI1985
I28
sI1986
I24
sI1987
I18
sI1988
I24
sI1989
I14
sI1990
I14
sI1991
I15
sI1992
I19
sI1993
I10
sI1994
I11
sI1995
I13
sI1996
I13
sI1997
I15
sI1998
I14
sI1999
I16
sI2000
I14
sI2001
I11
sI2002
I10
sI2003
I14
sI2004
I19
sI2005
I15
sI2006
I18
sI2007
I23
sI2008
I15
sI2009
I24
sI2010
I19
sI2011
I23
sI2012
I33
sI2013
I21
sI2014
I32
sI2015
I38
sI1906
I1
sI1912
I2
sI1913
I1
sI1916
I5
ssb(dp174
s(ipubmed_timeline
Term
p175
(dp176
g10
S'United States'
p177
sg12
(dp178
I1945
I2
sI1946
I1
sI1947
I5
sI1948
I1
sI1949
I3
sI1950
I5
sI1951
I12
sI1952
I3
sI1953
I3
sI1954
I5
sI1955
I1
sI1956
I1
sI1957
I1
sI1958
I1
sI1959
I1
sI1961
I1
sI1962
I1
sI1963
I10
sI1964
I11
sI1965
I8
sI1966
I7
sI1967
I9
sI1968
I9
sI1969
I14
sI1970
I10
sI1971
I14
sI1972
I11
sI1973
I26
sI1974
I14
sI1975
I13
sI1976
I6
sI1977
I11
sI1978
I12
sI1979
I4
sI1980
I13
sI1981
I16
sI1982
I16
sI1983
I12
sI1984
I18
sI1985
I15
sI1986
I13
sI1987
I10
sI1988
I24
sI1989
I19
sI1990
I14
sI1991
I22
sI1992
I25
sI1993
I16
sI1994
I28
sI1995
I19
sI1996
I19
sI1997
I15
sI1998
I13
sI1999
I19
sI2000
I12
sI2001
I24
sI2002
I19
sI2003
I9
sI2004
I13
sI2005
I13
sI2006
I9
sI2007
I15
sI2008
I12
sI2009
I6
sI2010
I14
sI2011
I11
sI2012
I10
sI2013
I8
sI2014
I12
sI2015
I10
ssb(dp179
s(ipubmed_timeline
Term
p180
(dp181
g10
S'Time Factors'
p182
sg12
(dp183
I1966
I3
sI1967
I9
sI1968
I15
sI1969
I14
sI1970
I25
sI1971
I26
sI1972
I35
sI1973
I36
sI1974
I27
sI1975
I26
sI1976
I24
sI1977
I20
sI1978
I16
sI1979
I25
sI1980
I30
sI1981
I23
sI1982
I11
sI1983
I19
sI1984
I22
sI1985
I36
sI1986
I11
sI1987
I12
sI1988
I17
sI1989
I14
sI1990
I16
sI1991
I11
sI1992
I5
sI1993
I9
sI1994
I10
sI1995
I7
sI1996
I12
sI1997
I5
sI1998
I4
sI1999
I13
sI2000
I7
sI2001
I9
sI2002
I15
sI2003
I6
sI2004
I10
sI2005
I13
sI2006
I14
sI2007
I10
sI2008
I16
sI2009
I21
sI2010
I13
sI2011
I9
sI2012
I21
sI2013
I20
sI2014
I14
sI2015
I12
ssb(dp184
s(ipubmed_timeline
Term
p185
(dp186
g10
Vsyphilitic
p187
sg12
(dp188
I1920
I1
sI1923
I1
sI1926
I1
sI1927
I1
sI1945
I5
sI1946
I43
sI1947
I22
sI1948
I35
sI1949
I34
sI1950
I59
sI1951
I83
sI1952
I50
sI1953
I51
sI1954
I44
sI1955
I31
sI1956
I42
sI1957
I28
sI1958
I34
sI1959
I28
sI1960
I32
sI1961
I25
sI1962
I21
sI1963
I30
sI1964
I38
sI1965
I27
sI1966
I24
sI1967
I28
sI1968
I20
sI1969
I24
sI1970
I24
sI1971
I23
sI1972
I14
sI1973
I18
sI1974
I16
sI1975
I19
sI1976
I20
sI1977
I15
sI1978
I17
sI1979
I20
sI1980
I21
sI1981
I20
sI1982
I21
sI1983
I21
sI1984
I25
sI1985
I8
sI1986
I20
sI1987
I24
sI1988
I17
sI1989
I23
sI1990
I20
sI1991
I12
sI1992
I14
sI1993
I10
sI1994
I13
sI1995
I14
sI1996
I11
sI1997
I13
sI1998
I10
sI1999
I8
sI2000
I13
sI2001
I8
sI2002
I14
sI2003
I17
sI2004
I16
sI2005
I13
sI2006
I15
sI2007
I11
sI2008
I16
sI2009
I32
sI2010
I28
sI2011
I37
sI2012
I26
sI2013
I33
sI2014
I29
sI2015
I19
sI1873
I1
sI1916
I1
sI1917
I1
ssb(dp189
s(ipubmed_timeline
Term
p190
(dp191
g10
S'Retrospective Studies'
p192
sg12
(dp193
I1956
I1
sI1964
I1
sI1965
I1
sI1966
I3
sI1968
I3
sI1969
I5
sI1970
I1
sI1971
I4
sI1975
I3
sI1976
I3
sI1977
I2
sI1978
I1
sI1979
I6
sI1980
I4
sI1981
I4
sI1982
I2
sI1983
I1
sI1984
I5
sI1985
I3
sI1986
I2
sI1987
I7
sI1988
I6
sI1989
I10
sI1990
I10
sI1991
I16
sI1992
I17
sI1993
I14
sI1994
I15
sI1995
I19
sI1996
I10
sI1997
I17
sI1998
I17
sI1999
I21
sI2000
I13
sI2001
I25
sI2002
I21
sI2003
I23
sI2004
I26
sI2005
I28
sI2006
I25
sI2007
I25
sI2008
I30
sI2009
I33
sI2010
I46
sI2011
I32
sI2012
I31
sI2013
I67
sI2014
I56
sI2015
I43
ssb(dp194
s(ipubmed_timeline
Term
p195
(dp196
g10
S'Sexual Behavior'
p197
sg12
(dp198
I1949
I1
sI1950
I1
sI1952
I1
sI1953
I1
sI1960
I1
sI1963
I3
sI1965
I2
sI1966
I2
sI1967
I1
sI1968
I1
sI1969
I3
sI1970
I4
sI1971
I5
sI1972
I2
sI1973
I3
sI1974
I10
sI1975
I2
sI1976
I6
sI1977
I4
sI1978
I3
sI1979
I4
sI1980
I2
sI1981
I7
sI1982
I13
sI1983
I9
sI1984
I11
sI1985
I11
sI1986
I1
sI1987
I9
sI1988
I21
sI1989
I14
sI1990
I25
sI1991
I15
sI1992
I25
sI1993
I25
sI1994
I33
sI1995
I20
sI1996
I23
sI1997
I21
sI1998
I21
sI1999
I15
sI2000
I20
sI2001
I18
sI2002
I32
sI2003
I28
sI2004
I24
sI2005
I32
sI2006
I32
sI2007
I27
sI2008
I34
sI2009
I29
sI2010
I25
sI2011
I30
sI2012
I29
sI2013
I43
sI2014
I44
sI2015
I36
ssb(dp199
s(ipubmed_timeline
Term
p200
(dp201
g10
S'Pregnancy'
p202
sg12
(dp203
I1945
I4
sI1946
I18
sI1947
I35
sI1948
I14
sI1949
I24
sI1950
I54
sI1951
I44
sI1952
I43
sI1953
I34
sI1954
I23
sI1955
I19
sI1956
I23
sI1957
I13
sI1958
I9
sI1959
I10
sI1960
I5
sI1961
I6
sI1962
I7
sI1963
I23
sI1964
I28
sI1965
I16
sI1966
I31
sI1967
I15
sI1968
I28
sI1969
I38
sI1970
I26
sI1971
I33
sI1972
I40
sI1973
I43
sI1974
I32
sI1975
I44
sI1976
I41
sI1977
I25
sI1978
I27
sI1979
I35
sI1980
I19
sI1981
I30
sI1982
I35
sI1983
I28
sI1984
I36
sI1985
I36
sI1986
I32
sI1987
I28
sI1988
I29
sI1989
I48
sI1990
I57
sI1991
I59
sI1992
I52
sI1993
I61
sI1994
I71
sI1995
I65
sI1996
I43
sI1997
I34
sI1998
I53
sI1999
I45
sI2000
I42
sI2001
I63
sI2002
I47
sI2003
I38
sI2004
I63
sI2005
I46
sI2006
I57
sI2007
I76
sI2008
I48
sI2009
I50
sI2010
I58
sI2011
I58
sI2012
I63
sI2013
I73
sI2014
I66
sI2015
I75
ssb(dp204
s(ipubmed_timeline
Term
p205
(dp206
g10
Vpatients
p207
sg12
(dp208
I1925
I1
sI1926
I1
sI1943
I1
sI1944
I1
sI1945
I2
sI1946
I7
sI1947
I4
sI1948
I7
sI1949
I12
sI1950
I13
sI1951
I14
sI1952
I11
sI1953
I6
sI1954
I14
sI1955
I7
sI1956
I6
sI1957
I7
sI1958
I9
sI1959
I17
sI1960
I10
sI1961
I15
sI1962
I15
sI1963
I10
sI1964
I16
sI1965
I14
sI1966
I23
sI1967
I18
sI1968
I12
sI1969
I16
sI1970
I21
sI1971
I14
sI1972
I15
sI1973
I14
sI1974
I17
sI1975
I23
sI1976
I11
sI1977
I13
sI1978
I10
sI1979
I10
sI1980
I13
sI1981
I16
sI1982
I16
sI1983
I25
sI1984
I25
sI1985
I21
sI1986
I22
sI1987
I21
sI1988
I33
sI1989
I26
sI1990
I31
sI1991
I19
sI1992
I16
sI1993
I23
sI1994
I28
sI1995
I21
sI1996
I27
sI1997
I13
sI1998
I12
sI1999
I16
sI2000
I18
sI2001
I15
sI2002
I7
sI2003
I21
sI2004
I15
sI2005
I21
sI2006
I22
sI2007
I20
sI2008
I20
sI2009
I26
sI2010
I28
sI2011
I26
sI2012
I38
sI2013
I37
sI2014
I34
sI2015
I36
ssb(dp209
ssS'node_dict_factory'
p210
c__builtin__
dict
p211
sS'edge_attr_dict_factory'
p212
g211
sS'edge'
p213
(dp214
g8
(dp215
g125
(dp216
S'w'
p217
I1
ssg130
(dp218
g217
I1
ssg135
(dp219
g217
I1
ssg85
(dp220
g217
I1
ssg140
(dp221
g217
I1
ssg145
(dp222
g217
I1
ssg150
(dp223
g217
I1
ssg185
(dp224
g217
I1
ssg90
(dp225
g217
I1
ssg95
(dp226
g217
I1
ssg25
(dp227
g217
I1
ssg205
(dp228
g217
I1
ssg200
(dp229
g217
I1
ssg105
(dp230
g217
I1
ssg80
(dp231
g217
I1
ssg75
(dp232
g217
I1
ssg40
(dp233
g217
I1
ssg45
(dp234
g217
I1
ssg50
(dp235
g217
I1
ssg55
(dp236
g217
I1
ssg120
(dp237
g217
I1
ssg190
(dp238
g217
I1
ssg65
(dp239
g217
I1
ssg60
(dp240
g217
I1
ssg155
(dp241
g217
I1
ssg160
(dp242
g217
I1
ssg165
(dp243
g217
I1
ssg170
(dp244
g217
I1
ssg30
(dp245
g217
I1
ssg195
(dp246
g217
I1
ssg35
(dp247
g217
I1
ssg180
(dp248
g217
I1
ssg115
(dp249
g217
I1
ssg15
(dp250
g217
I1
ssg175
(dp251
g217
I1
ssg20
(dp252
g217
I1
ssg70
(dp253
g217
I1
sssg15
(dp254
g75
(dp255
g217
I1
ssg185
(dp256
g217
I1
ssg80
(dp257
g217
I1
ssg125
(dp258
g217
I1
ssg130
(dp259
g217
I1
ssg135
(dp260
g217
I1
ssg85
(dp261
g217
I1
ssg145
(dp262
g217
I1
ssg150
(dp263
g217
I1
ssg90
(dp264
g217
I1
ssg95
(dp265
g217
I1
ssg8
g250
sg25
(dp266
g217
I1
ssg30
(dp267
g217
I1
ssg205
(dp268
g217
I1
ssg105
(dp269
g217
I1
ssg55
(dp270
g217
I1
ssg60
(dp271
g217
I1
ssg45
(dp272
g217
I1
ssg50
(dp273
g217
I1
ssg20
(dp274
g217
I1
ssg140
(dp275
g217
I1
ssg110
(dp276
g217
I1
ssg190
(dp277
g217
I1
ssg195
(dp278
g217
I1
ssg200
(dp279
g217
I1
ssg70
(dp280
g217
I1
ssg155
(dp281
g217
I1
ssg160
(dp282
g217
I1
ssg165
(dp283
g217
I1
ssg170
(dp284
g217
I1
ssg40
(dp285
g217
I1
ssg65
(dp286
g217
I1
ssg115
(dp287
g217
I1
ssg120
(dp288
g217
I1
ssg180
(dp289
g217
I1
ssg175
(dp290
g217
I1
ssg35
(dp291
g217
I1
ssg100
(dp292
g217
I1
sssg20
(dp293
g185
(dp294
g217
I1
ssg55
(dp295
g217
I1
ssg60
(dp296
g217
I1
ssg115
(dp297
g217
I1
ssg175
(dp298
g217
I1
ssg125
(dp299
g217
I1
ssg85
(dp300
g217
I1
ssg140
(dp301
g217
I1
ssg145
(dp302
g217
I1
ssg150
(dp303
g217
I1
ssg8
g252
sg195
(dp304
g217
I1
ssg70
(dp305
g217
I1
ssg165
(dp306
g217
I1
ssg190
(dp307
g217
I1
ssg170
(dp308
g217
I1
ssg200
(dp309
g217
I1
ssg155
(dp310
g217
I1
ssg75
(dp311
g217
I1
ssg30
(dp312
g217
I1
ssg135
(dp313
g217
I1
ssg160
(dp314
g217
I1
ssg180
(dp315
g217
I1
ssg120
(dp316
g217
I1
ssg25
(dp317
g217
I1
ssg90
(dp318
g217
I1
ssg95
(dp319
g217
I1
ssg35
(dp320
g217
I1
ssg205
(dp321
g217
I1
ssg105
(dp322
g217
I1
ssg80
(dp323
g217
I1
ssg40
(dp324
g217
I1
ssg45
(dp325
g217
I1
ssg50
(dp326
g217
I1
ssg110
(dp327
g217
I1
ssg65
(dp328
g217
I1
ssg15
g274
sg130
(dp329
g217
I1
ssg100
(dp330
g217
I1
sssg25
(dp331
g185
(dp332
g217
I1
ssg55
(dp333
g217
I1
ssg60
(dp334
g217
I1
ssg80
(dp335
g217
I1
ssg125
(dp336
g217
I1
ssg130
(dp337
g217
I1
ssg135
(dp338
g217
I1
ssg85
(dp339
g217
I1
ssg145
(dp340
g217
I1
ssg150
(dp341
g217
I1
ssg110
(dp342
g217
I1
ssg15
g266
sg8
g227
sg70
(dp343
g217
I1
ssg155
(dp344
g217
I1
ssg160
(dp345
g217
I1
ssg190
(dp346
g217
I1
ssg170
(dp347
g217
I1
ssg195
(dp348
g217
I1
ssg200
(dp349
g217
I1
ssg20
g317
sg75
(dp350
g217
I1
ssg205
(dp351
g217
I1
ssg30
(dp352
g217
I1
ssg140
(dp353
g217
I1
ssg165
(dp354
g217
I1
ssg180
(dp355
g217
I1
ssg120
(dp356
g217
I1
ssg115
(dp357
g217
I1
ssg175
(dp358
g217
I1
ssg90
(dp359
g217
I1
ssg95
(dp360
g217
I1
ssg35
(dp361
g217
I1
ssg105
(dp362
g217
I1
ssg40
(dp363
g217
I1
ssg45
(dp364
g217
I1
ssg50
(dp365
g217
I1
ssg65
(dp366
g217
I1
ssg100
(dp367
g217
I1
sssg30
(dp368
g185
(dp369
g217
I1
ssg115
(dp370
g217
I1
ssg175
(dp371
g217
I1
ssg80
(dp372
g217
I1
ssg125
(dp373
g217
I1
ssg130
(dp374
g217
I1
ssg135
(dp375
g217
I1
ssg85
(dp376
g217
I1
ssg140
(dp377
g217
I1
ssg145
(dp378
g217
I1
ssg150
(dp379
g217
I1
ssg8
g245
sg15
g267
sg70
(dp380
g217
I1
ssg155
(dp381
g217
I1
ssg165
(dp382
g217
I1
ssg190
(dp383
g217
I1
ssg195
(dp384
g217
I1
ssg200
(dp385
g217
I1
ssg20
g312
sg75
(dp386
g217
I1
ssg205
(dp387
g217
I1
ssg30
(dp388
g217
I1
ssg55
(dp389
g217
I1
ssg160
(dp390
g217
I1
ssg60
(dp391
g217
I1
ssg120
(dp392
g217
I1
ssg170
(dp393
g217
I1
ssg25
g352
sg90
(dp394
g217
I1
ssg95
(dp395
g217
I1
ssg35
(dp396
g217
I1
ssg105
(dp397
g217
I1
ssg40
(dp398
g217
I1
ssg45
(dp399
g217
I1
ssg50
(dp400
g217
I1
ssg110
(dp401
g217
I1
ssg65
(dp402
g217
I1
ssg180
(dp403
g217
I1
ssg100
(dp404
g217
I1
sssg35
(dp405
g75
(dp406
g217
I1
ssg185
(dp407
g217
I1
ssg80
(dp408
g217
I1
ssg125
(dp409
g217
I1
ssg130
(dp410
g217
I1
ssg135
(dp411
g217
I1
ssg150
(dp412
g217
I1
ssg90
(dp413
g217
I1
ssg95
(dp414
g217
I1
ssg190
(dp415
g217
I1
ssg15
g291
sg25
g361
sg30
g396
sg65
(dp416
g217
I1
ssg105
(dp417
g217
I1
ssg55
(dp418
g217
I1
ssg60
(dp419
g217
I1
ssg40
(dp420
g217
I1
ssg8
g247
sg85
(dp421
g217
I1
ssg140
(dp422
g217
I1
ssg145
(dp423
g217
I1
ssg110
(dp424
g217
I1
ssg195
(dp425
g217
I1
ssg200
(dp426
g217
I1
ssg20
g320
sg155
(dp427
g217
I1
ssg160
(dp428
g217
I1
ssg165
(dp429
g217
I1
ssg170
(dp430
g217
I1
ssg180
(dp431
g217
I1
ssg45
(dp432
g217
I1
ssg205
(dp433
g217
I1
ssg50
(dp434
g217
I1
ssg120
(dp435
g217
I1
ssg115
(dp436
g217
I1
ssg175
(dp437
g217
I1
ssg70
(dp438
g217
I1
ssg100
(dp439
g217
I1
sssg40
(dp440
g185
(dp441
g217
I1
ssg55
(dp442
g217
I1
ssg60
(dp443
g217
I1
ssg175
(dp444
g217
I1
ssg80
(dp445
g217
I1
ssg130
(dp446
g217
I1
ssg135
(dp447
g217
I1
ssg85
(dp448
g217
I1
ssg140
(dp449
g217
I1
ssg145
(dp450
g217
I1
ssg150
(dp451
g217
I1
ssg15
g285
sg70
(dp452
g217
I1
ssg155
(dp453
g217
I1
ssg190
(dp454
g217
I1
ssg8
g233
sg195
(dp455
g217
I1
ssg200
(dp456
g217
I1
ssg20
g324
sg75
(dp457
g217
I1
ssg25
g363
sg30
g398
sg125
(dp458
g217
I1
ssg160
(dp459
g217
I1
ssg165
(dp460
g217
I1
ssg180
(dp461
g217
I1
ssg120
(dp462
g217
I1
ssg170
(dp463
g217
I1
ssg115
(dp464
g217
I1
ssg90
(dp465
g217
I1
ssg95
(dp466
g217
I1
ssg35
g420
sg205
(dp467
g217
I1
ssg105
(dp468
g217
I1
ssg40
(dp469
g217
I1
ssg45
(dp470
g217
I1
ssg50
(dp471
g217
I1
ssg110
(dp472
g217
I1
ssg65
(dp473
g217
I1
ssg100
(dp474
g217
I1
sssg45
(dp475
g185
(dp476
g217
I1
ssg55
(dp477
g217
I1
ssg60
(dp478
g217
I1
ssg15
g272
sg80
(dp479
g217
I1
ssg125
(dp480
g217
I1
ssg130
(dp481
g217
I1
ssg135
(dp482
g217
I1
ssg85
(dp483
g217
I1
ssg140
(dp484
g217
I1
ssg145
(dp485
g217
I1
ssg150
(dp486
g217
I1
ssg70
(dp487
g217
I1
ssg190
(dp488
g217
I1
ssg8
g234
sg195
(dp489
g217
I1
ssg200
(dp490
g217
I1
ssg20
g325
sg205
(dp491
g217
I1
ssg75
(dp492
g217
I1
ssg25
g364
sg30
g399
sg155
(dp493
g217
I1
ssg160
(dp494
g217
I1
ssg95
(dp495
g217
I1
ssg120
(dp496
g217
I1
ssg170
(dp497
g217
I1
ssg115
(dp498
g217
I1
ssg175
(dp499
g217
I1
ssg90
(dp500
g217
I1
ssg35
g432
sg105
(dp501
g217
I1
ssg40
g470
sg50
(dp502
g217
I1
ssg110
(dp503
g217
I1
ssg65
(dp504
g217
I1
ssg180
(dp505
g217
I1
ssg165
(dp506
g217
I1
ssg100
(dp507
g217
I1
sssg50
(dp508
g75
(dp509
g217
I1
ssg185
(dp510
g217
I1
ssg125
(dp511
g217
I1
ssg145
(dp512
g217
I1
ssg15
g273
sg25
g365
sg205
(dp513
g217
I1
ssg30
g400
sg65
(dp514
g217
I1
ssg105
(dp515
g217
I1
ssg55
(dp516
g217
I1
ssg80
(dp517
g217
I1
ssg20
g326
sg40
g471
sg45
g502
sg130
(dp518
g217
I1
ssg155
(dp519
g217
I1
ssg135
(dp520
g217
I1
ssg85
(dp521
g217
I1
ssg120
(dp522
g217
I1
ssg140
(dp523
g217
I1
ssg150
(dp524
g217
I1
ssg110
(dp525
g217
I1
ssg190
(dp526
g217
I1
ssg8
g235
sg195
(dp527
g217
I1
ssg200
(dp528
g217
I1
ssg60
(dp529
g217
I1
ssg70
(dp530
g217
I1
ssg160
(dp531
g217
I1
ssg165
(dp532
g217
I1
ssg180
(dp533
g217
I1
ssg90
(dp534
g217
I1
ssg35
g434
sg170
(dp535
g217
I1
ssg115
(dp536
g217
I1
ssg50
(dp537
g217
I1
ssg100
(dp538
g217
I1
ssg95
(dp539
g217
I1
ssg175
(dp540
g217
I1
sssg55
(dp541
g185
(dp542
g217
I1
ssg115
(dp543
g217
I1
ssg55
(dp544
g217
I1
ssg60
(dp545
g217
I1
ssg80
(dp546
g217
I1
ssg125
(dp547
g217
I1
ssg130
(dp548
g217
I1
ssg85
(dp549
g217
I1
ssg140
(dp550
g217
I1
ssg145
(dp551
g217
I1
ssg150
(dp552
g217
I1
ssg15
g270
sg20
g295
sg155
(dp553
g217
I1
ssg190
(dp554
g217
I1
ssg8
g236
sg195
(dp555
g217
I1
ssg180
(dp556
g217
I1
ssg200
(dp557
g217
I1
ssg70
(dp558
g217
I1
ssg165
(dp559
g217
I1
ssg205
(dp560
g217
I1
ssg75
(dp561
g217
I1
ssg25
g333
sg30
g389
sg135
(dp562
g217
I1
ssg160
(dp563
g217
I1
ssg120
(dp564
g217
I1
ssg170
(dp565
g217
I1
ssg175
(dp566
g217
I1
ssg90
(dp567
g217
I1
ssg95
(dp568
g217
I1
ssg35
g418
sg105
(dp569
g217
I1
ssg40
g442
sg45
g477
sg50
g516
sg110
(dp570
g217
I1
ssg65
(dp571
g217
I1
ssg100
(dp572
g217
I1
sssg60
(dp573
g185
(dp574
g217
I1
ssg60
(dp575
g217
I1
ssg115
(dp576
g217
I1
ssg15
g271
sg80
(dp577
g217
I1
ssg125
(dp578
g217
I1
ssg130
(dp579
g217
I1
ssg135
(dp580
g217
I1
ssg85
(dp581
g217
I1
ssg140
(dp582
g217
I1
ssg145
(dp583
g217
I1
ssg150
(dp584
g217
I1
ssg190
(dp585
g217
I1
ssg70
(dp586
g217
I1
ssg165
(dp587
g217
I1
ssg8
g240
sg170
(dp588
g217
I1
ssg195
(dp589
g217
I1
ssg180
(dp590
g217
I1
ssg200
(dp591
g217
I1
ssg205
(dp592
g217
I1
ssg30
g391
sg75
(dp593
g217
I1
ssg20
g296
sg55
g545
sg155
(dp594
g217
I1
ssg160
(dp595
g217
I1
ssg95
(dp596
g217
I1
ssg120
(dp597
g217
I1
ssg175
(dp598
g217
I1
ssg25
g334
sg90
(dp599
g217
I1
ssg35
g419
sg105
(dp600
g217
I1
ssg40
g443
sg45
g478
sg50
g529
sg110
(dp601
g217
I1
ssg65
(dp602
g217
I1
ssg100
(dp603
g217
I1
sssg65
(dp604
g75
(dp605
g217
I1
ssg185
(dp606
g217
I1
ssg80
(dp607
g217
I1
ssg125
(dp608
g217
I1
ssg135
(dp609
g217
I1
ssg140
(dp610
g217
I1
ssg145
(dp611
g217
I1
ssg150
(dp612
g217
I1
ssg90
(dp613
g217
I1
ssg95
(dp614
g217
I1
ssg100
(dp615
g217
I1
ssg105
(dp616
g217
I1
ssg25
g366
sg205
(dp617
g217
I1
ssg55
g571
sg30
g402
sg60
g602
sg50
g514
sg130
(dp618
g217
I1
ssg20
g328
sg155
(dp619
g217
I1
ssg110
(dp620
g217
I1
ssg190
(dp621
g217
I1
ssg8
g239
sg195
(dp622
g217
I1
ssg200
(dp623
g217
I1
ssg70
(dp624
g217
I1
ssg160
(dp625
g217
I1
ssg165
(dp626
g217
I1
ssg170
(dp627
g217
I1
ssg40
g473
sg45
g504
sg85
(dp628
g217
I1
ssg35
g416
sg120
(dp629
g217
I1
ssg180
(dp630
g217
I1
ssg115
(dp631
g217
I1
ssg15
g286
sg175
(dp632
g217
I1
sssg70
(dp633
g75
(dp634
g217
I1
ssg185
(dp635
g217
I1
ssg80
(dp636
g217
I1
ssg125
(dp637
g217
I1
ssg130
(dp638
g217
I1
ssg135
(dp639
g217
I1
ssg140
(dp640
g217
I1
ssg145
(dp641
g217
I1
ssg150
(dp642
g217
I1
ssg90
(dp643
g217
I1
ssg100
(dp644
g217
I1
ssg15
g280
sg25
g343
sg205
(dp645
g217
I1
ssg30
g380
sg105
(dp646
g217
I1
ssg55
g558
sg50
g530
sg20
g305
sg155
(dp647
g217
I1
ssg160
(dp648
g217
I1
ssg110
(dp649
g217
I1
ssg190
(dp650
g217
I1
ssg8
g253
sg195
(dp651
g217
I1
ssg65
g624
sg200
(dp652
g217
I1
ssg60
g586
sg165
(dp653
g217
I1
ssg170
(dp654
g217
I1
ssg40
g452
sg45
g487
sg85
(dp655
g217
I1
ssg35
g438
sg120
(dp656
g217
I1
ssg180
(dp657
g217
I1
ssg115
(dp658
g217
I1
ssg175
(dp659
g217
I1
ssg95
(dp660
g217
I1
sssg75
(dp661
g185
(dp662
g217
I1
ssg125
(dp663
g217
I1
ssg130
(dp664
g217
I1
ssg135
(dp665
g217
I1
ssg85
(dp666
g217
I1
ssg140
(dp667
g217
I1
ssg145
(dp668
g217
I1
ssg150
(dp669
g217
I1
ssg75
(dp670
g217
I1
ssg8
g232
sg100
(dp671
g217
I1
ssg195
(dp672
g217
I1
ssg15
g255
sg25
g350
sg30
g386
sg65
g605
sg105
(dp673
g217
I1
ssg55
g561
sg80
(dp674
g217
I1
ssg60
g593
sg40
g457
sg50
g509
sg20
g311
sg90
(dp675
g217
I1
ssg110
(dp676
g217
I1
ssg190
(dp677
g217
I1
ssg200
(dp678
g217
I1
ssg70
g634
sg155
(dp679
g217
I1
ssg160
(dp680
g217
I1
ssg165
(dp681
g217
I1
ssg45
g492
sg205
(dp682
g217
I1
ssg35
g406
sg120
(dp683
g217
I1
ssg170
(dp684
g217
I1
ssg180
(dp685
g217
I1
ssg115
(dp686
g217
I1
ssg175
(dp687
g217
I1
ssg95
(dp688
g217
I1
sssg80
(dp689
g185
(dp690
g217
I1
ssg55
g546
sg60
g577
sg125
(dp691
g217
I1
ssg130
(dp692
g217
I1
ssg135
(dp693
g217
I1
ssg140
(dp694
g217
I1
ssg145
(dp695
g217
I1
ssg150
(dp696
g217
I1
ssg110
(dp697
g217
I1
ssg8
g231
sg15
g257
sg20
g323
sg160
(dp698
g217
I1
ssg190
(dp699
g217
I1
ssg170
(dp700
g217
I1
ssg195
(dp701
g217
I1
ssg180
(dp702
g217
I1
ssg200
(dp703
g217
I1
ssg70
g636
sg155
(dp704
g217
I1
ssg165
(dp705
g217
I1
ssg205
(dp706
g217
I1
ssg75
g674
sg25
g335
sg85
(dp707
g217
I1
ssg120
(dp708
g217
I1
ssg115
(dp709
g217
I1
ssg175
(dp710
g217
I1
ssg90
(dp711
g217
I1
ssg95
(dp712
g217
I1
ssg105
(dp713
g217
I1
ssg30
g372
sg40
g445
sg45
g479
sg50
g517
sg65
g607
sg35
g408
sg100
(dp714
g217
I1
sssg85
(dp715
g75
g666
sg185
(dp716
g217
I1
ssg125
(dp717
g217
I1
ssg135
(dp718
g217
I1
ssg140
(dp719
g217
I1
ssg145
(dp720
g217
I1
ssg150
(dp721
g217
I1
ssg90
(dp722
g217
I1
ssg95
(dp723
g217
I1
ssg25
g339
sg205
(dp724
g217
I1
ssg30
g376
sg105
(dp725
g217
I1
ssg55
g549
sg80
g707
sg60
g581
sg40
g448
sg50
g521
sg130
(dp726
g217
I1
ssg155
(dp727
g217
I1
ssg160
(dp728
g217
I1
ssg110
(dp729
g217
I1
ssg190
(dp730
g217
I1
ssg8
g220
sg195
(dp731
g217
I1
ssg65
g628
sg200
(dp732
g217
I1
ssg15
g261
sg70
g655
sg20
g300
sg165
(dp733
g217
I1
ssg170
(dp734
g217
I1
ssg45
g483
sg85
(dp735
g217
I1
ssg35
g421
sg120
(dp736
g217
I1
ssg180
(dp737
g217
I1
ssg115
(dp738
g217
I1
ssg175
(dp739
g217
I1
ssg100
(dp740
g217
I1
sssg90
(dp741
g185
(dp742
g217
I1
ssg80
g711
sg125
(dp743
g217
I1
ssg130
(dp744
g217
I1
ssg85
g722
sg140
(dp745
g217
I1
ssg145
(dp746
g217
I1
ssg150
(dp747
g217
I1
ssg95
(dp748
g217
I1
ssg110
(dp749
g217
I1
ssg115
(dp750
g217
I1
ssg100
(dp751
g217
I1
ssg25
g359
sg205
(dp752
g217
I1
ssg30
g394
sg35
g413
sg105
(dp753
g217
I1
ssg75
g675
sg55
g567
sg40
g465
sg45
g500
sg160
(dp754
g217
I1
ssg90
(dp755
g217
I1
ssg190
(dp756
g217
I1
ssg8
g225
sg195
(dp757
g217
I1
ssg65
g613
sg200
(dp758
g217
I1
ssg60
g599
sg70
g643
sg20
g318
sg155
(dp759
g217
I1
ssg165
(dp760
g217
I1
ssg170
(dp761
g217
I1
ssg180
(dp762
g217
I1
ssg135
(dp763
g217
I1
ssg50
g534
sg120
(dp764
g217
I1
ssg15
g264
sg175
(dp765
g217
I1
sssg95
(dp766
g115
(dp767
g217
I1
ssg175
(dp768
g217
I1
ssg15
g265
sg25
g360
sg30
g395
sg40
g466
sg45
g495
sg50
g539
sg55
g568
sg60
g596
sg65
g614
sg70
g660
sg75
g688
sg180
(dp769
g217
I1
ssg90
g748
sg95
(dp770
g217
I1
ssg100
(dp771
g217
I1
ssg110
(dp772
g217
I1
ssg120
(dp773
g217
I1
ssg35
g414
sg80
g712
sg125
(dp774
g217
I1
ssg130
(dp775
g217
I1
ssg135
(dp776
g217
I1
ssg85
g723
sg140
(dp777
g217
I1
ssg145
(dp778
g217
I1
ssg150
(dp779
g217
I1
ssg20
g319
sg155
(dp780
g217
I1
ssg160
(dp781
g217
I1
ssg165
(dp782
g217
I1
ssg170
(dp783
g217
I1
ssg185
(dp784
g217
I1
ssg105
(dp785
g217
I1
ssg190
(dp786
g217
I1
ssg8
g226
sg195
(dp787
g217
I1
ssg200
(dp788
g217
I1
ssg205
(dp789
g217
I1
sssg100
(dp790
g185
(dp791
g217
I1
ssg60
g603
sg45
g507
sg115
(dp792
g217
I1
ssg95
g771
sg80
g714
sg125
(dp793
g217
I1
ssg130
(dp794
g217
I1
ssg85
g740
sg145
(dp795
g217
I1
ssg150
(dp796
g217
I1
ssg15
g292
sg200
(dp797
g217
I1
ssg155
(dp798
g217
I1
ssg160
(dp799
g217
I1
ssg190
(dp800
g217
I1
ssg170
(dp801
g217
I1
ssg195
(dp802
g217
I1
ssg70
g644
sg20
g330
sg165
(dp803
g217
I1
ssg205
(dp804
g217
I1
ssg75
g671
sg25
g367
sg30
g404
sg55
g572
sg135
(dp805
g217
I1
ssg120
(dp806
g217
I1
ssg175
(dp807
g217
I1
ssg90
g751
sg35
g439
sg105
(dp808
g217
I1
ssg40
g474
sg50
g538
sg65
g615
sg140
(dp809
g217
I1
ssg180
(dp810
g217
I1
sssg105
(dp811
g185
(dp812
g217
I1
ssg115
(dp813
g217
I1
ssg60
g600
sg120
(dp814
g217
I1
ssg15
g269
sg80
g713
sg125
(dp815
g217
I1
ssg130
(dp816
g217
I1
ssg135
(dp817
g217
I1
ssg85
g725
sg140
(dp818
g217
I1
ssg150
(dp819
g217
I1
ssg8
g230
sg155
(dp820
g217
I1
ssg160
(dp821
g217
I1
ssg190
(dp822
g217
I1
ssg170
(dp823
g217
I1
ssg195
(dp824
g217
I1
ssg200
(dp825
g217
I1
ssg25
g362
sg75
g673
sg205
(dp826
g217
I1
ssg30
g397
sg20
g322
sg55
g569
sg145
(dp827
g217
I1
ssg175
(dp828
g217
I1
ssg70
g646
sg90
g753
sg95
g785
sg40
g468
sg45
g501
sg50
g515
sg110
(dp829
g217
I1
ssg65
g616
sg180
(dp830
g217
I1
ssg165
(dp831
g217
I1
ssg100
g808
sg35
g417
ssg110
(dp832
g185
(dp833
g217
I1
ssg55
g570
sg80
g697
sg125
(dp834
g217
I1
ssg130
(dp835
g217
I1
ssg135
(dp836
g217
I1
ssg85
g729
sg140
(dp837
g217
I1
ssg145
(dp838
g217
I1
ssg150
(dp839
g217
I1
ssg190
(dp840
g217
I1
ssg15
g276
sg65
g620
sg75
g676
sg70
g649
sg165
(dp841
g217
I1
ssg195
(dp842
g217
I1
ssg200
(dp843
g217
I1
ssg20
g327
sg170
(dp844
g217
I1
ssg30
g401
sg25
g342
sg205
(dp845
g217
I1
ssg155
(dp846
g217
I1
ssg160
(dp847
g217
I1
ssg60
g601
sg90
g749
sg95
g772
sg115
(dp848
g217
I1
ssg175
(dp849
g217
I1
ssg120
(dp850
g217
I1
ssg35
g424
sg105
g829
sg40
g472
sg45
g503
sg50
g525
sg180
(dp851
g217
I1
sssg115
(dp852
g75
g686
sg185
(dp853
g217
I1
ssg125
(dp854
g217
I1
ssg85
g738
sg145
(dp855
g217
I1
ssg150
(dp856
g217
I1
ssg90
g750
sg95
g767
sg190
(dp857
g217
I1
ssg25
g357
sg30
g370
sg35
g436
sg40
g464
sg105
g813
sg80
g709
sg55
g543
sg60
g576
sg45
g498
sg50
g536
sg130
(dp858
g217
I1
ssg135
(dp859
g217
I1
ssg110
g848
sg8
g249
sg195
(dp860
g217
I1
ssg65
g631
sg200
(dp861
g217
I1
ssg15
g287
sg70
g658
sg20
g297
sg155
(dp862
g217
I1
ssg160
(dp863
g217
I1
ssg165
(dp864
g217
I1
ssg170
(dp865
g217
I1
ssg140
(dp866
g217
I1
ssg205
(dp867
g217
I1
ssg120
(dp868
g217
I1
ssg180
(dp869
g217
I1
ssg175
(dp870
g217
I1
ssg100
g792
ssg120
(dp871
g185
(dp872
g217
I1
ssg115
g868
sg105
g814
sg55
g564
sg60
g597
sg80
g708
sg125
(dp873
g217
I1
ssg130
(dp874
g217
I1
ssg135
(dp875
g217
I1
ssg85
g736
sg140
(dp876
g217
I1
ssg145
(dp877
g217
I1
ssg110
g850
sg15
g288
sg155
(dp878
g217
I1
ssg160
(dp879
g217
I1
ssg165
(dp880
g217
I1
ssg190
(dp881
g217
I1
ssg8
g237
sg170
(dp882
g217
I1
ssg195
(dp883
g217
I1
ssg200
(dp884
g217
I1
ssg20
g316
sg30
g392
sg75
g683
sg25
g356
sg205
(dp885
g217
I1
ssg150
(dp886
g217
I1
ssg180
(dp887
g217
I1
ssg95
g773
sg175
(dp888
g217
I1
ssg70
g656
sg90
g764
sg35
g435
sg40
g462
sg45
g496
sg50
g522
sg65
g629
sg100
g806
ssg125
(dp889
g185
(dp890
g217
I1
ssg55
g547
sg60
g578
sg35
g409
sg175
(dp891
g217
I1
ssg80
g691
sg130
(dp892
g217
I1
ssg135
(dp893
g217
I1
ssg85
g717
sg140
(dp894
g217
I1
ssg145
(dp895
g217
I1
ssg150
(dp896
g217
I1
ssg15
g258
sg155
(dp897
g217
I1
ssg160
(dp898
g217
I1
ssg165
(dp899
g217
I1
ssg190
(dp900
g217
I1
ssg8
g216
sg195
(dp901
g217
I1
ssg200
(dp902
g217
I1
ssg20
g299
sg75
g663
sg25
g336
sg205
(dp903
g217
I1
ssg30
g373
sg120
g873
sg170
(dp904
g217
I1
ssg115
g854
sg70
g637
sg90
g743
sg95
g774
sg105
g815
sg40
g458
sg45
g480
sg50
g511
sg110
g834
sg65
g608
sg180
(dp905
g217
I1
ssg100
g793
ssg130
(dp906
g185
(dp907
g217
I1
ssg115
g858
sg60
g579
sg35
g410
sg50
g518
sg175
(dp908
g217
I1
ssg80
g692
sg125
g892
sg135
(dp909
g217
I1
ssg85
g726
sg140
(dp910
g217
I1
ssg145
(dp911
g217
I1
ssg150
(dp912
g217
I1
ssg190
(dp913
g217
I1
ssg20
g329
sg155
(dp914
g217
I1
ssg8
g218
sg195
(dp915
g217
I1
ssg200
(dp916
g217
I1
ssg70
g638
sg165
(dp917
g217
I1
ssg30
g374
sg75
g664
sg25
g337
sg160
(dp918
g217
I1
ssg120
g874
sg90
g744
sg95
g775
sg100
g794
sg205
(dp919
g217
I1
ssg105
g816
sg40
g446
sg45
g481
sg55
g548
sg110
g835
sg65
g618
sg15
g259
sg180
(dp920
g217
I1
sssg135
(dp921
g75
g665
sg125
g893
sg130
g909
sg85
g718
sg140
(dp922
g217
I1
ssg145
(dp923
g217
I1
ssg150
(dp924
g217
I1
ssg115
g859
sg195
(dp925
g217
I1
ssg25
g338
sg205
(dp926
g217
I1
ssg35
g411
sg200
(dp927
g217
I1
ssg120
g875
sg105
g817
sg80
g693
sg60
g580
sg20
g313
sg45
g482
sg50
g520
sg70
g639
sg55
g562
sg110
g836
sg190
(dp928
g217
I1
ssg8
g219
sg65
g609
sg155
(dp929
g217
I1
ssg160
(dp930
g217
I1
ssg165
(dp931
g217
I1
ssg40
g447
sg90
g763
sg30
g375
sg95
g776
sg180
(dp932
g217
I1
ssg15
g260
sg175
(dp933
g217
I1
ssg100
g805
ssg140
(dp934
g75
g667
sg80
g694
sg125
g894
sg130
g910
sg135
g922
sg85
g719
sg145
(dp935
g217
I1
ssg150
(dp936
g217
I1
ssg185
(dp937
g217
I1
ssg90
g745
sg110
g837
sg115
g866
sg100
g809
sg25
g353
sg205
(dp938
g217
I1
ssg30
g377
sg65
g610
sg35
g422
sg200
(dp939
g217
I1
ssg105
g818
sg55
g550
sg20
g301
sg40
g449
sg45
g484
sg155
(dp940
g217
I1
ssg190
(dp941
g217
I1
ssg8
g221
sg170
(dp942
g217
I1
ssg195
(dp943
g217
I1
ssg60
g582
sg70
g640
sg160
(dp944
g217
I1
ssg165
(dp945
g217
I1
ssg50
g523
sg120
g876
sg180
(dp946
g217
I1
ssg15
g275
sg95
g777
sg175
(dp947
g217
I1
sssg145
(dp948
g185
(dp949
g217
I1
ssg55
g551
sg60
g583
sg40
g450
sg35
g423
sg80
g695
sg125
g895
sg130
g911
sg135
g923
sg85
g720
sg140
g935
sg145
(dp950
g217
I1
ssg150
(dp951
g217
I1
ssg20
g302
sg155
(dp952
g217
I1
ssg190
(dp953
g217
I1
ssg8
g222
sg195
(dp954
g217
I1
ssg200
(dp955
g217
I1
ssg70
g641
sg165
(dp956
g217
I1
ssg205
(dp957
g217
I1
ssg30
g378
sg75
g668
sg25
g340
sg160
(dp958
g217
I1
ssg180
(dp959
g217
I1
ssg120
g877
sg170
(dp960
g217
I1
ssg115
g855
sg175
(dp961
g217
I1
ssg90
g746
sg95
g778
sg105
g827
sg45
g485
sg50
g512
sg110
g838
sg65
g611
sg15
g262
sg100
g795
ssg150
(dp962
g185
(dp963
g217
I1
ssg55
g552
sg60
g584
sg35
g412
sg115
g856
sg80
g696
sg125
g896
sg130
g912
sg135
g924
sg85
g721
sg140
g936
sg145
g951
sg150
(dp964
g217
I1
ssg15
g263
sg20
g303
sg155
(dp965
g217
I1
ssg160
(dp966
g217
I1
ssg165
(dp967
g217
I1
ssg190
(dp968
g217
I1
ssg8
g223
sg195
(dp969
g217
I1
ssg200
(dp970
g217
I1
ssg70
g642
sg170
(dp971
g217
I1
ssg205
(dp972
g217
I1
ssg75
g669
sg25
g341
sg30
g379
sg120
g886
sg175
(dp973
g217
I1
ssg90
g747
sg95
g779
sg105
g819
sg40
g451
sg45
g486
sg50
g524
sg110
g839
sg65
g612
sg180
(dp974
g217
I1
ssg100
g796
ssg155
(dp975
g175
(dp976
g217
I1
ssg195
(dp977
g217
I1
ssg15
g281
sg20
g310
sg160
(dp978
g217
I1
ssg170
(dp979
g217
I1
ssg25
g344
sg205
(dp980
g217
I1
ssg30
g381
sg115
g862
sg35
g427
sg55
g553
sg40
g453
sg45
g493
sg50
g519
sg70
g647
sg75
g679
sg110
g846
sg180
(dp981
g217
I1
ssg90
g759
sg95
g780
sg105
g820
sg65
g619
sg80
g704
sg125
g897
sg130
g914
sg135
g929
sg85
g727
sg140
g940
sg145
g952
sg150
g965
sg155
(dp982
g217
I1
ssg165
(dp983
g217
I1
ssg60
g594
sg100
g798
sg185
(dp984
g217
I1
ssg190
(dp985
g217
I1
ssg8
g241
sg200
(dp986
g217
I1
ssg120
g878
ssg160
(dp987
g185
(dp988
g217
I1
ssg115
g863
sg55
g563
sg60
g595
sg80
g698
sg125
g898
sg130
g918
sg135
g930
sg85
g728
sg145
g958
sg150
g966
sg15
g282
sg200
(dp989
g217
I1
ssg75
g680
sg155
g978
sg160
(dp990
g217
I1
ssg190
(dp991
g217
I1
ssg8
g242
sg195
(dp992
g217
I1
ssg180
(dp993
g217
I1
ssg70
g648
sg20
g314
sg170
(dp994
g217
I1
ssg205
(dp995
g217
I1
ssg30
g390
sg140
g944
sg120
g879
sg175
(dp996
g217
I1
ssg25
g345
sg90
g754
sg95
g781
sg100
g799
sg35
g428
sg105
g821
sg40
g459
sg45
g494
sg50
g531
sg110
g847
sg65
g625
sg165
(dp997
g217
I1
sssg165
(dp998
g185
(dp999
g217
I1
ssg60
g587
sg115
g864
sg80
g705
sg125
g899
sg130
g917
sg135
g931
sg85
g733
sg145
g956
sg150
g967
sg70
g653
sg160
g997
sg165
(dp1000
g217
I1
ssg190
(dp1001
g217
I1
ssg8
g243
sg195
(dp1002
g217
I1
ssg200
(dp1003
g217
I1
ssg20
g306
sg155
g983
sg30
g382
sg75
g681
sg25
g354
sg55
g559
sg140
g945
sg120
g880
sg170
(dp1004
g217
I1
ssg175
(dp1005
g217
I1
ssg90
g760
sg95
g782
sg205
(dp1006
g217
I1
ssg105
g831
sg40
g460
sg45
g506
sg50
g532
sg110
g841
sg65
g626
sg15
g283
sg180
(dp1007
g217
I1
ssg100
g803
sg35
g429
ssg170
(dp1008
g75
g684
sg185
(dp1009
g217
I1
ssg125
g904
sg85
g734
sg145
g960
sg150
g971
sg90
g761
sg110
g844
sg100
g801
sg25
g347
sg205
(dp1010
g217
I1
ssg30
g393
sg105
g823
sg55
g565
sg80
g700
sg60
g588
sg40
g463
sg45
g497
sg50
g535
sg165
g1004
sg190
(dp1011
g217
I1
ssg8
g244
sg195
(dp1012
g217
I1
ssg65
g627
sg200
(dp1013
g217
I1
ssg70
g654
sg20
g308
sg155
g979
sg160
g994
sg35
g430
sg140
g942
sg95
g783
sg120
g882
sg180
(dp1014
g217
I1
ssg115
g865
sg15
g284
sg175
(dp1015
g217
I1
sssg175
(dp1016
g75
g687
sg80
g710
sg125
g891
sg85
g739
sg145
g961
sg185
(dp1017
g217
I1
ssg90
g765
sg95
g768
sg110
g849
sg15
g290
sg25
g358
sg200
(dp1018
g217
I1
ssg205
(dp1019
g217
I1
ssg105
g828
sg55
g566
sg60
g598
sg45
g499
sg50
g540
sg130
g908
sg140
g947
sg150
g973
sg190
(dp1020
g217
I1
ssg8
g251
sg195
(dp1021
g217
I1
ssg65
g632
sg20
g298
sg155
g976
sg160
g996
sg165
g1005
sg170
g1015
sg135
g933
sg175
(dp1022
g217
I1
ssg40
g444
sg30
g371
sg35
g437
sg120
g888
sg180
(dp1023
g217
I1
ssg115
g870
sg100
g807
sg70
g659
ssg180
(dp1024
g75
g685
sg80
g702
sg125
g905
sg130
g920
sg135
g932
sg85
g737
sg140
g946
sg145
g959
sg150
g974
sg90
g762
sg95
g769
sg205
(dp1025
g217
I1
ssg35
g431
sg185
(dp1026
g217
I1
ssg105
g830
sg55
g556
sg30
g403
sg40
g461
sg45
g505
sg50
g533
sg20
g315
sg120
g887
sg110
g851
sg190
(dp1027
g217
I1
ssg8
g248
sg170
g1014
sg195
(dp1028
g217
I1
ssg65
g630
sg200
(dp1029
g217
I1
ssg15
g289
sg25
g355
sg60
g590
sg70
g657
sg155
g981
sg160
g993
sg165
g1007
sg115
g869
sg175
g1023
sg100
g810
ssg185
(dp1030
g60
g574
sg120
g872
sg40
g441
sg115
g853
sg80
g690
sg125
g890
sg130
g907
sg85
g716
sg140
g937
sg145
g949
sg150
g963
sg15
g256
sg75
g662
sg70
g635
sg20
g294
sg165
g999
sg190
(dp1031
g217
I1
ssg8
g224
sg170
g1009
sg195
(dp1032
g217
I1
ssg200
(dp1033
g217
I1
ssg160
g988
sg25
g332
sg205
(dp1034
g217
I1
ssg30
g369
sg55
g542
sg155
g984
sg175
g1017
sg90
g742
sg95
g784
sg35
g407
sg105
g812
sg45
g476
sg50
g510
sg110
g833
sg65
g606
sg180
g1026
sg100
g791
ssg190
(dp1035
g60
g585
sg115
g857
sg75
g677
sg185
g1031
sg80
g699
sg130
g913
sg135
g928
sg85
g730
sg140
g941
sg145
g953
sg150
g968
sg90
g756
sg15
g277
sg25
g346
sg30
g383
sg205
(dp1036
g217
I1
ssg105
g822
sg55
g554
sg20
g307
sg40
g454
sg45
g488
sg50
g526
sg125
g900
sg120
g881
sg110
g840
sg190
(dp1037
g217
I1
ssg8
g238
sg195
(dp1038
g217
I1
ssg65
g621
sg200
(dp1039
g217
I1
ssg70
g650
sg155
g985
sg160
g991
sg165
g1001
sg170
g1011
sg35
g415
sg180
g1027
sg175
g1020
sg100
g800
sg95
g786
ssg195
(dp1040
g80
g701
sg125
g901
sg130
g915
sg135
g925
sg85
g731
sg140
g943
sg145
g954
sg150
g969
sg90
g757
sg95
g787
sg110
g842
sg115
g860
sg100
g802
sg75
g672
sg105
g824
sg25
g348
sg35
g425
sg200
(dp1041
g217
I1
ssg185
g1032
sg30
g384
sg40
g455
sg50
g527
sg55
g555
sg20
g304
sg155
g977
sg190
g1038
sg8
g246
sg65
g622
sg15
g278
sg60
g589
sg70
g651
sg160
g992
sg165
g1002
sg170
g1012
sg45
g489
sg205
(dp1042
g217
I1
ssg120
g883
sg180
g1028
sg175
g1021
ssg200
(dp1043
g185
g1033
sg115
g861
sg55
g557
sg60
g591
sg80
g703
sg125
g902
sg130
g916
sg135
g927
sg85
g732
sg140
g939
sg145
g955
sg150
g970
sg15
g279
sg70
g652
sg20
g309
sg155
g986
sg190
g1039
sg8
g229
sg195
g1041
sg200
(dp1044
g217
I1
ssg165
g1003
sg75
g678
sg30
g385
sg160
g989
sg180
g1029
sg95
g788
sg120
g884
sg170
g1013
sg175
g1018
sg25
g349
sg90
g758
sg100
g797
sg35
g426
sg205
(dp1045
g217
I1
ssg105
g825
sg40
g456
sg45
g490
sg50
g528
sg110
g843
sg65
g623
ssg205
(dp1046
g60
g592
sg185
g1034
sg75
g682
sg40
g467
sg175
g1019
sg80
g706
sg125
g903
sg130
g919
sg135
g926
sg85
g724
sg140
g938
sg145
g957
sg150
g972
sg8
g228
sg15
g268
sg70
g645
sg160
g995
sg165
g1006
sg190
g1036
sg195
g1042
sg180
g1025
sg200
g1045
sg155
g980
sg30
g387
sg20
g321
sg55
g560
sg120
g885
sg170
g1010
sg115
g867
sg25
g351
sg90
g752
sg95
g789
sg35
g433
sg105
g826
sg45
g491
sg50
g513
sg110
g845
sg65
g617
sg100
g804
sssS'graph'
p1047
(dp1048
sS'adjlist_dict_factory'
p1049
g211
sS'adj'
p1050
g214
sb.